(dp0
S'Human,CCLE,D,CCLE-LGG'
p1
(dp2
S'dbsnp'
p3
(dp4
S'yes'
p5
I660
sS'no'
p6
I43038
ssS'repeat'
p7
(dp8
S'Rep'
p9
I3
sS'Alu'
p10
I43694
sS'NonRep'
p11
I1
ssS'region'
p12
(dp13
S'splicing'
p14
I4
sS'stoploss'
p15
I4
sS'downstream'
p16
I207
sS'UTR5'
p17
I101
sS'ncRNA_exonic'
p18
I672
sS'UTR3'
p19
I2354
sS'upstream'
p20
I82
sS'nonsynonymous SNV'
p21
I37
sS'synonymous SNV'
p22
I9
sS'unknown'
p23
I0
sS'intergenic'
p24
I2037
sS'intronic'
p25
I33161
sS'ncRNA_splicing'
p26
I0
sS'ncRNA_intronic'
p27
I5018
ssS'aachange'
p28
(dp29
g23
I43648
sg22
I9
sg15
I4
sg21
I37
sssS'Human,GEUV,G,YRI'
p30
(dp31
g3
(dp32
g5
I0
sg6
I185306
ssg7
(dp33
g9
I5375
sg10
I174238
sg11
I5693
ssg12
(dp34
g14
I36
sg15
I17
sg16
I1254
sg17
I574
sg18
I3715
sg19
I21131
sg20
I419
sg21
I929
sg22
I384
sg23
I66
sg24
I9736
sg25
I128299
sg26
I21
sg27
I18655
ssg28
(dp35
g23
I183976
sg22
I384
sg15
I17
sg21
I929
sssS'Human,CCLE,D,CCLE-COAD'
p36
(dp37
g3
(dp38
g5
I575
sg6
I33411
ssg7
(dp39
g9
I1
sg10
I33985
sg11
I0
ssg12
(dp40
g14
I2
sg15
I1
sg16
I178
sg17
I84
sg18
I571
sg19
I2022
sg20
I70
sg21
I24
sg22
I7
sg23
I0
sg24
I1751
sg25
I25278
sg26
I1
sg27
I3985
ssg28
(dp41
g23
I33954
sg22
I7
sg15
I1
sg21
I24
sssS'Human,Encode,D,NHDF'
p42
(dp43
g3
(dp44
g5
I299
sg6
I12878
ssg7
(dp45
g9
I0
sg10
I13177
sg11
I0
ssg12
(dp46
g14
I1
sg15
I1
sg16
I48
sg17
I24
sg18
I122
sg19
I937
sg20
I18
sg21
I5
sg22
I3
sg23
I0
sg24
I590
sg25
I10066
sg26
I0
sg27
I1359
ssg28
(dp47
g23
I13168
sg22
I3
sg15
I1
sg21
I5
sssS'Human,Encode,S,HFDPC'
p48
(dp49
g3
(dp50
g5
I660
sg6
I58633
ssg7
(dp51
g9
I2615
sg10
I54644
sg11
I2034
ssg12
(dp52
g14
I3
sg15
I3
sg16
I313
sg17
I111
sg18
I975
sg19
I6539
sg20
I72
sg21
I64
sg22
I35
sg23
I1
sg24
I2565
sg25
I43214
sg26
I8
sg27
I5368
ssg28
(dp53
g23
I59191
sg22
I35
sg15
I3
sg21
I64
sssS'Human,HumanBodyMap,G,brain'
p54
(dp55
g3
(dp56
g5
I0
sg6
I6040
ssg7
(dp57
g9
I298
sg10
I5434
sg11
I308
ssg12
(dp58
g14
I0
sg15
I0
sg16
I109
sg17
I15
sg18
I274
sg19
I2472
sg20
I10
sg21
I20
sg22
I10
sg23
I0
sg24
I314
sg25
I2226
sg26
I1
sg27
I574
ssg28
(dp59
g23
I6010
sg22
I10
sg15
I0
sg21
I20
sssS'Human,SEQC,P,ILM_COH_D'
p60
(dp61
g3
(dp62
g5
I1452
sg6
I149132
ssg7
(dp63
g9
I3753
sg10
I143472
sg11
I3359
ssg12
(dp64
g14
I26
sg15
I15
sg16
I1373
sg17
I624
sg18
I5672
sg19
I22587
sg20
I357
sg21
I295
sg22
I131
sg23
I4
sg24
I8821
sg25
I90786
sg26
I22
sg27
I19788
ssg28
(dp65
g23
I150143
sg22
I131
sg15
I15
sg21
I295
sssS'Human,SEQC,P,ILM_COH_A'
p66
(dp67
g3
(dp68
g5
I1131
sg6
I101050
ssg7
(dp69
g9
I2201
sg10
I98148
sg11
I1832
ssg12
(dp70
g14
I20
sg15
I12
sg16
I939
sg17
I396
sg18
I3757
sg19
I16022
sg20
I271
sg21
I210
sg22
I98
sg23
I1
sg24
I5926
sg25
I61009
sg26
I19
sg27
I13449
ssg28
(dp71
g23
I101861
sg22
I98
sg15
I12
sg21
I210
sssS'Human,SEQC,P,ILM_COH_C'
p72
(dp73
g3
(dp74
g5
I1245
sg6
I119238
ssg7
(dp75
g9
I2912
sg10
I115098
sg11
I2473
ssg12
(dp76
g14
I25
sg15
I13
sg16
I1079
sg17
I507
sg18
I4493
sg19
I18679
sg20
I291
sg21
I234
sg22
I115
sg23
I3
sg24
I6971
sg25
I72052
sg26
I19
sg27
I15928
ssg28
(dp77
g23
I120121
sg22
I115
sg15
I13
sg21
I234
sssS'Human,SEQC,P,ILM_COH_B'
p78
(dp79
g3
(dp80
g5
I1448
sg6
I153647
ssg7
(dp81
g9
I3995
sg10
I147578
sg11
I3522
ssg12
(dp82
g14
I28
sg15
I15
sg16
I1482
sg17
I660
sg18
I5751
sg19
I22950
sg20
I354
sg21
I314
sg22
I145
sg23
I7
sg24
I9247
sg25
I93626
sg26
I25
sg27
I20378
ssg28
(dp83
g23
I154621
sg22
I145
sg15
I15
sg21
I314
sssS'Human,ABRF,G,ABRF-ILMN-L-A'
p84
(dp85
g3
(dp86
g5
I0
sg6
I80998
ssg7
(dp87
g9
I1961
sg10
I77408
sg11
I1629
ssg12
(dp88
g14
I10
sg15
I4
sg16
I334
sg17
I138
sg18
I993
sg19
I4762
sg20
I99
sg21
I57
sg22
I24
sg23
I0
sg24
I3242
sg25
I64673
sg26
I5
sg27
I6635
ssg28
(dp89
g23
I80913
sg22
I24
sg15
I4
sg21
I57
sssS'Human,Roadmap,G,muscle_leg'
p90
(dp91
g3
(dp92
g5
I0
sg6
I71366
ssg7
(dp93
g9
I2552
sg10
I66963
sg11
I1851
ssg12
(dp94
g14
I11
sg15
I4
sg16
I298
sg17
I140
sg18
I900
sg19
I4273
sg20
I70
sg21
I68
sg22
I35
sg23
I1
sg24
I2778
sg25
I57502
sg26
I6
sg27
I5263
ssg28
(dp95
g23
I71259
sg22
I35
sg15
I4
sg21
I68
sssS'Human,BrainDataSet,G,brain_prefrontal'
p96
(dp97
g3
(dp98
g5
I0
sg6
I10467
ssg7
(dp99
g9
I306
sg10
I9822
sg11
I339
ssg12
(dp100
g14
I0
sg15
I2
sg16
I114
sg17
I54
sg18
I442
sg19
I2690
sg20
I21
sg21
I29
sg22
I14
sg23
I1
sg24
I577
sg25
I5397
sg26
I2
sg27
I1106
ssg28
(dp101
g23
I10422
sg22
I14
sg15
I2
sg21
I29
sssS'Human,Encode,S,CD34+_Mobilized'
p102
(dp103
g3
(dp104
g5
I921
sg6
I114531
ssg7
(dp105
g9
I5112
sg10
I107191
sg11
I3149
ssg12
(dp106
g14
I13
sg15
I3
sg16
I507
sg17
I165
sg18
I1597
sg19
I7059
sg20
I122
sg21
I95
sg22
I41
sg23
I2
sg24
I4415
sg25
I90761
sg26
I11
sg27
I10632
ssg28
(dp107
g23
I115313
sg22
I41
sg15
I3
sg21
I95
sssS'Human,Roadmap,S,pancreas'
p108
(dp109
g3
(dp110
g5
I1160
sg6
I119610
ssg7
(dp111
g9
I2261
sg10
I116666
sg11
I1843
ssg12
(dp112
g14
I11
sg15
I9
sg16
I705
sg17
I268
sg18
I2403
sg19
I9341
sg20
I201
sg21
I126
sg22
I54
sg23
I0
sg24
I5331
sg25
I90012
sg26
I12
sg27
I12250
ssg28
(dp113
g23
I120581
sg22
I54
sg15
I9
sg21
I126
sssS'Human,CCLE,P,CCLE-BRCA'
p114
(dp115
g3
(dp116
g5
I911
sg6
I97885
ssg7
(dp117
g9
I2086
sg10
I95049
sg11
I1661
ssg12
(dp118
g14
I17
sg15
I8
sg16
I772
sg17
I407
sg18
I2791
sg19
I12527
sg20
I219
sg21
I156
sg22
I66
sg23
I2
sg24
I5094
sg25
I65315
sg26
I19
sg27
I11353
ssg28
(dp119
g23
I98566
sg22
I66
sg15
I8
sg21
I156
sssS'Human,HumanBodyMap,S,prostate'
p120
(dp121
g3
(dp122
g5
I381
sg6
I7797
ssg7
(dp123
g9
I240
sg10
I7622
sg11
I316
ssg12
(dp124
g14
I3
sg15
I1
sg16
I128
sg17
I38
sg18
I452
sg19
I3894
sg20
I17
sg21
I34
sg22
I14
sg23
I0
sg24
I380
sg25
I2167
sg26
I2
sg27
I1039
ssg28
(dp125
g23
I8129
sg22
I14
sg15
I1
sg21
I34
sssS'Human,Roadmap,G,lung'
p126
(dp127
g3
(dp128
g5
I0
sg6
I83636
ssg7
(dp129
g9
I2193
sg10
I79316
sg11
I2127
ssg12
(dp130
g14
I6
sg15
I8
sg16
I713
sg17
I257
sg18
I1887
sg19
I11693
sg20
I134
sg21
I250
sg22
I78
sg23
I12
sg24
I3971
sg25
I57118
sg26
I12
sg27
I7456
ssg28
(dp131
g23
I83300
sg22
I78
sg15
I8
sg21
I250
sssS'Human,Roadmap,G,CD56_primary_cells'
p132
(dp133
g3
(dp134
g5
I0
sg6
I169799
ssg7
(dp135
g9
I10147
sg10
I153537
sg11
I6115
ssg12
(dp136
g14
I11
sg15
I4
sg16
I521
sg17
I203
sg18
I1487
sg19
I5509
sg20
I126
sg21
I90
sg22
I47
sg23
I1
sg24
I5475
sg25
I143889
sg26
I11
sg27
I12398
ssg28
(dp137
g23
I169658
sg22
I47
sg15
I4
sg21
I90
sssS'Human,CCLE,G,CCLE-BLCA'
p138
(dp139
g3
(dp140
g5
I0
sg6
I51596
ssg7
(dp141
g9
I1750
sg10
I48030
sg11
I1816
ssg12
(dp142
g14
I14
sg15
I8
sg16
I486
sg17
I249
sg18
I1570
sg19
I8930
sg20
I118
sg21
I176
sg22
I70
sg23
I1
sg24
I2915
sg25
I31586
sg26
I9
sg27
I5433
ssg28
(dp143
g23
I51342
sg22
I70
sg15
I8
sg21
I176
sssS'Human,Roadmap,D,thymus'
p144
(dp145
g3
(dp146
g5
I260
sg6
I15291
ssg7
(dp147
g9
I1
sg10
I15550
sg11
I0
ssg12
(dp148
g14
I0
sg15
I1
sg16
I103
sg17
I39
sg18
I321
sg19
I1380
sg20
I51
sg21
I8
sg22
I5
sg23
I0
sg24
I731
sg25
I11007
sg26
I0
sg27
I1896
ssg28
(dp149
g23
I15537
sg22
I5
sg15
I1
sg21
I8
sssS'Human,Encode,G,HUVEC'
p150
(dp151
g3
(dp152
g5
I0
sg6
I135656
ssg7
(dp153
g9
I5961
sg10
I125299
sg11
I4396
ssg12
(dp154
g14
I7
sg15
I6
sg16
I510
sg17
I284
sg18
I1618
sg19
I6822
sg20
I221
sg21
I189
sg22
I73
sg23
I1
sg24
I6018
sg25
I108716
sg26
I12
sg27
I11155
ssg28
(dp155
g23
I135388
sg22
I73
sg15
I6
sg21
I189
sssS'Human,HumanBodyMap,G,breast'
p156
(dp157
g3
(dp158
g5
I0
sg6
I8189
ssg7
(dp159
g9
I263
sg10
I7587
sg11
I339
ssg12
(dp160
g14
I3
sg15
I2
sg16
I135
sg17
I21
sg18
I285
sg19
I3124
sg20
I23
sg21
I59
sg22
I26
sg23
I2
sg24
I472
sg25
I3167
sg26
I2
sg27
I857
ssg28
(dp161
g23
I8102
sg22
I26
sg15
I2
sg21
I59
sssS'Human,GEUV,S,GBR'
p162
(dp163
g3
(dp164
g5
I1663
sg6
I195427
ssg7
(dp165
g9
I5456
sg10
I186062
sg11
I5572
ssg12
(dp166
g14
I26
sg15
I17
sg16
I1330
sg17
I558
sg18
I4683
sg19
I23631
sg20
I411
sg21
I975
sg22
I380
sg23
I47
sg24
I9723
sg25
I131443
sg26
I26
sg27
I23771
ssg28
(dp167
g23
I195718
sg22
I380
sg15
I17
sg21
I975
sssS'Human,SEQC,G,ILM_BGI_D'
p168
(dp169
g3
(dp170
g5
I0
sg6
I140290
ssg7
(dp171
g9
I3154
sg10
I134105
sg11
I3031
ssg12
(dp172
g14
I38
sg15
I20
sg16
I1410
sg17
I684
sg18
I4765
sg19
I25658
sg20
I328
sg21
I326
sg22
I157
sg23
I1
sg24
I8068
sg25
I83762
sg26
I21
sg27
I14965
ssg28
(dp173
g23
I139787
sg22
I157
sg15
I20
sg21
I326
sssS'Human,SEQC,G,ILM_BGI_B'
p174
(dp175
g3
(dp176
g5
I0
sg6
I161571
ssg7
(dp177
g9
I3645
sg10
I154590
sg11
I3336
ssg12
(dp178
g14
I36
sg15
I20
sg16
I1634
sg17
I731
sg18
I5251
sg19
I27528
sg20
I379
sg21
I317
sg22
I160
sg23
I3
sg24
I9238
sg25
I99075
sg26
I21
sg27
I17085
ssg28
(dp179
g23
I161074
sg22
I160
sg15
I20
sg21
I317
sssS'Human,SEQC,G,ILM_BGI_C'
p180
(dp181
g3
(dp182
g5
I0
sg6
I149486
ssg7
(dp183
g9
I3261
sg10
I143284
sg11
I2941
ssg12
(dp184
g14
I32
sg15
I21
sg16
I1417
sg17
I648
sg18
I4716
sg19
I24431
sg20
I375
sg21
I306
sg22
I147
sg23
I1
sg24
I8671
sg25
I92523
sg26
I24
sg27
I16088
ssg28
(dp185
g23
I149012
sg22
I147
sg15
I21
sg21
I306
sssS'Human,SEQC,G,ILM_BGI_A'
p186
(dp187
g3
(dp188
g5
I0
sg6
I127791
ssg7
(dp189
g9
I2519
sg10
I123096
sg11
I2176
ssg12
(dp190
g14
I28
sg15
I16
sg16
I1229
sg17
I574
sg18
I4073
sg19
I21002
sg20
I323
sg21
I263
sg22
I124
sg23
I1
sg24
I7454
sg25
I78766
sg26
I19
sg27
I13840
ssg28
(dp191
g23
I127388
sg22
I124
sg15
I16
sg21
I263
sssS'Human,CCLE,P,CCLE-UCEC'
p192
(dp193
g3
(dp194
g5
I339
sg6
I18698
ssg7
(dp195
g9
I347
sg10
I18387
sg11
I303
ssg12
(dp196
g14
I5
sg15
I3
sg16
I218
sg17
I96
sg18
I569
sg19
I4134
sg20
I33
sg21
I38
sg22
I11
sg23
I0
sg24
I829
sg25
I11068
sg26
I2
sg27
I2019
ssg28
(dp197
g23
I18985
sg22
I11
sg15
I3
sg21
I38
sssS'Human,SEQC,P,ILM_CNL_C'
p198
(dp199
g3
(dp200
g5
I1699
sg6
I204274
ssg7
(dp201
g9
I4374
sg10
I197845
sg11
I3754
ssg12
(dp202
g14
I30
sg15
I22
sg16
I1689
sg17
I725
sg18
I6756
sg19
I26602
sg20
I482
sg21
I381
sg22
I168
sg23
I4
sg24
I12104
sg25
I129681
sg26
I33
sg27
I27189
ssg28
(dp203
g23
I205402
sg22
I168
sg15
I22
sg21
I381
sssS'Human,CCLE,P,CCLE-LGG'
p204
(dp205
g3
(dp206
g5
I984
sg6
I114022
ssg7
(dp207
g9
I2656
sg10
I110413
sg11
I1937
ssg12
(dp208
g14
I19
sg15
I8
sg16
I770
sg17
I402
sg18
I3045
sg19
I13474
sg20
I217
sg21
I178
sg22
I84
sg23
I1
sg24
I5385
sg25
I78460
sg26
I13
sg27
I12882
ssg28
(dp209
g23
I114736
sg22
I84
sg15
I8
sg21
I178
sssS'Human,Roadmap,S,heart_right_atrium'
p210
(dp211
g3
(dp212
g5
I595
sg6
I43249
ssg7
(dp213
g9
I1374
sg10
I41543
sg11
I927
ssg12
(dp214
g14
I5
sg15
I4
sg16
I382
sg17
I139
sg18
I1114
sg19
I5520
sg20
I73
sg21
I65
sg22
I38
sg23
I0
sg24
I2143
sg25
I29406
sg26
I8
sg27
I4926
ssg28
(dp215
g23
I43737
sg22
I38
sg15
I4
sg21
I65
sssS'Human,GEUV,S,CEU'
p216
(dp217
g3
(dp218
g5
I1568
sg6
I175733
ssg7
(dp219
g9
I4774
sg10
I168249
sg11
I4278
ssg12
(dp220
g14
I26
sg15
I18
sg16
I1268
sg17
I523
sg18
I4509
sg19
I22913
sg20
I373
sg21
I469
sg22
I194
sg23
I16
sg24
I9034
sg25
I115815
sg26
I24
sg27
I22050
ssg28
(dp221
g23
I176620
sg22
I194
sg15
I18
sg21
I469
sssS'Human,Encode,S,SK-N-SH'
p222
(dp223
g3
(dp224
g5
I1019
sg6
I139727
ssg7
(dp225
g9
I3252
sg10
I135108
sg11
I2386
ssg12
(dp226
g14
I13
sg15
I9
sg16
I747
sg17
I380
sg18
I2549
sg19
I8261
sg20
I340
sg21
I132
sg22
I63
sg23
I1
sg24
I7618
sg25
I104103
sg26
I11
sg27
I16482
ssg28
(dp227
g23
I140542
sg22
I63
sg15
I9
sg21
I132
sssS'Human,BrainDataSet,G,Homosapiens'
p228
(dp229
g3
(dp230
g5
I0
sg6
I57787
ssg7
(dp231
g9
I1823
sg10
I54160
sg11
I1804
ssg12
(dp232
g14
I13
sg15
I7
sg16
I545
sg17
I311
sg18
I1957
sg19
I9356
sg20
I135
sg21
I144
sg22
I88
sg23
I2
sg24
I3325
sg25
I35449
sg26
I12
sg27
I6405
ssg28
(dp233
g23
I57548
sg22
I88
sg15
I7
sg21
I144
sssS'Human,Roadmap,P,small_intestine'
p234
(dp235
g3
(dp236
g5
I1042
sg6
I95601
ssg7
(dp237
g9
I2423
sg10
I92280
sg11
I1940
ssg12
(dp238
g14
I14
sg15
I9
sg16
I737
sg17
I242
sg18
I2187
sg19
I10715
sg20
I187
sg21
I192
sg22
I71
sg23
I5
sg24
I5133
sg25
I66128
sg26
I10
sg27
I10973
ssg28
(dp239
g23
I96371
sg22
I71
sg15
I9
sg21
I192
sssS'Human,Encode,G,CD34+_Mobilized'
p240
(dp241
g3
(dp242
g5
I0
sg6
I113229
ssg7
(dp243
g9
I6023
sg10
I103816
sg11
I3390
ssg12
(dp244
g14
I16
sg15
I3
sg16
I491
sg17
I163
sg18
I1427
sg19
I6562
sg20
I113
sg21
I100
sg22
I39
sg23
I2
sg24
I4560
sg25
I90414
sg26
I9
sg27
I9301
ssg28
(dp245
g23
I113087
sg22
I39
sg15
I3
sg21
I100
sssS'Human,CCLE,D,CCLE-ESCA'
p246
(dp247
g3
(dp248
g5
I421
sg6
I22431
ssg7
(dp249
g9
I1
sg10
I22851
sg11
I0
ssg12
(dp250
g14
I1
sg15
I1
sg16
I126
sg17
I78
sg18
I434
sg19
I1675
sg20
I46
sg21
I23
sg22
I3
sg23
I0
sg24
I1267
sg25
I16364
sg26
I1
sg27
I2827
ssg28
(dp251
g23
I22825
sg22
I3
sg15
I1
sg21
I23
sssS'Human,HumanBodyMap,S,16_tissues'
p252
(dp253
g3
(dp254
g5
I677
sg6
I30494
ssg7
(dp255
g9
I2970
sg10
I25857
sg11
I2344
ssg12
(dp256
g14
I4
sg15
I2
sg16
I299
sg17
I110
sg18
I1036
sg19
I7295
sg20
I42
sg21
I186
sg22
I75
sg23
I8
sg24
I1422
sg25
I17302
sg26
I3
sg27
I3360
ssg28
(dp257
g23
I30908
sg22
I75
sg15
I2
sg21
I186
sssS'Human,Encode,S,HCH'
p258
(dp259
g3
(dp260
g5
I830
sg6
I95502
ssg7
(dp261
g9
I5018
sg10
I87920
sg11
I3394
ssg12
(dp262
g14
I9
sg15
I5
sg16
I385
sg17
I156
sg18
I1224
sg19
I6337
sg20
I112
sg21
I85
sg22
I34
sg23
I0
sg24
I4268
sg25
I74379
sg26
I8
sg27
I9302
ssg28
(dp263
g23
I96208
sg22
I34
sg15
I5
sg21
I85
sssS'Human,HumanBodyMap,G,lymph_node'
p264
(dp265
g3
(dp266
g5
I0
sg6
I6509
ssg7
(dp267
g9
I155
sg10
I6075
sg11
I279
ssg12
(dp268
g14
I1
sg15
I1
sg16
I106
sg17
I34
sg18
I251
sg19
I2591
sg20
I17
sg21
I82
sg22
I35
sg23
I4
sg24
I311
sg25
I2457
sg26
I2
sg27
I608
ssg28
(dp269
g23
I6391
sg22
I35
sg15
I1
sg21
I82
sssS'Human,ABRF,S,ABRF-ILMN-RNA-B'
p270
(dp271
g3
(dp272
g5
I395
sg6
I14560
ssg7
(dp273
g9
I466
sg10
I13960
sg11
I529
ssg12
(dp274
g14
I2
sg15
I3
sg16
I183
sg17
I67
sg18
I669
sg19
I3686
sg20
I23
sg21
I46
sg22
I18
sg23
I0
sg24
I773
sg25
I7771
sg26
I1
sg27
I1689
ssg28
(dp275
g23
I14888
sg22
I18
sg15
I3
sg21
I46
sssS'Human,Encode,P,Hmnccb'
p276
(dp277
g3
(dp278
g5
I182
sg6
I14223
ssg7
(dp279
g9
I619
sg10
I13172
sg11
I614
ssg12
(dp280
g14
I1
sg15
I2
sg16
I27
sg17
I26
sg18
I204
sg19
I909
sg20
I12
sg21
I13
sg22
I6
sg23
I0
sg24
I269
sg25
I12105
sg26
I1
sg27
I828
ssg28
(dp281
g23
I14384
sg22
I6
sg15
I2
sg21
I13
sssS'Human,Encode,G,hMSC-BM'
p282
(dp283
g3
(dp284
g5
I0
sg6
I82535
ssg7
(dp285
g9
I3949
sg10
I76116
sg11
I2470
ssg12
(dp286
g14
I11
sg15
I5
sg16
I355
sg17
I156
sg18
I1041
sg19
I6302
sg20
I101
sg21
I76
sg22
I35
sg23
I0
sg24
I4076
sg25
I63516
sg26
I3
sg27
I6834
ssg28
(dp287
g23
I82419
sg22
I35
sg15
I5
sg21
I76
sssS'Human,Roadmap,P,heart_aorta'
p288
(dp289
g3
(dp290
g5
I1168
sg6
I134073
ssg7
(dp291
g9
I1509
sg10
I131761
sg11
I1971
ssg12
(dp292
g14
I8
sg15
I1
sg16
I676
sg17
I295
sg18
I2559
sg19
I10509
sg20
I179
sg21
I251
sg22
I122
sg23
I3
sg24
I6112
sg25
I100164
sg26
I14
sg27
I14307
ssg28
(dp293
g23
I134867
sg22
I122
sg15
I1
sg21
I251
sssS'Human,BrainDataSet,P,temporal_cortex'
p294
(dp295
g3
(dp296
g5
I550
sg6
I23732
ssg7
(dp297
g9
I693
sg10
I22828
sg11
I761
ssg12
(dp298
g14
I3
sg15
I3
sg16
I281
sg17
I115
sg18
I1166
sg19
I5814
sg20
I56
sg21
I69
sg22
I31
sg23
I2
sg24
I1491
sg25
I11859
sg26
I7
sg27
I3352
ssg28
(dp299
g23
I24179
sg22
I31
sg15
I3
sg21
I69
sssS'Human,Roadmap,G,placenta_day113_F'
p300
(dp301
g3
(dp302
g5
I0
sg6
I54724
ssg7
(dp303
g9
I1555
sg10
I52001
sg11
I1168
ssg12
(dp304
g14
I3
sg15
I5
sg16
I260
sg17
I99
sg18
I680
sg19
I4186
sg20
I44
sg21
I40
sg22
I9
sg23
I0
sg24
I1872
sg25
I43673
sg26
I4
sg27
I3835
ssg28
(dp305
g23
I54670
sg22
I9
sg15
I5
sg21
I40
sssS'Human,HumanBodyMap,P,testes'
p306
(dp307
g3
(dp308
g5
I387
sg6
I7513
ssg7
(dp309
g9
I295
sg10
I7240
sg11
I365
ssg12
(dp310
g14
I4
sg15
I0
sg16
I123
sg17
I17
sg18
I397
sg19
I3789
sg20
I13
sg21
I30
sg22
I11
sg23
I0
sg24
I412
sg25
I2208
sg26
I1
sg27
I886
ssg28
(dp311
g23
I7859
sg22
I11
sg15
I0
sg21
I30
sssS'Human,Roadmap,S,psoas_muscle'
p312
(dp313
g3
(dp314
g5
I395
sg6
I25822
ssg7
(dp315
g9
I734
sg10
I24724
sg11
I759
ssg12
(dp316
g14
I5
sg15
I3
sg16
I257
sg17
I108
sg18
I795
sg19
I4040
sg20
I43
sg21
I68
sg22
I31
sg23
I0
sg24
I1376
sg25
I16354
sg26
I5
sg27
I3117
ssg28
(dp317
g23
I26115
sg22
I31
sg15
I3
sg21
I68
sssS'Human,GEUV,G,TSI'
p318
(dp319
g3
(dp320
g5
I0
sg6
I184087
ssg7
(dp321
g9
I5356
sg10
I172603
sg11
I6128
ssg12
(dp322
g14
I28
sg15
I18
sg16
I1278
sg17
I532
sg18
I3818
sg19
I21326
sg20
I403
sg21
I1326
sg22
I474
sg23
I109
sg24
I9799
sg25
I126373
sg26
I20
sg27
I18512
ssg28
(dp323
g23
I182269
sg22
I474
sg15
I18
sg21
I1326
sssS'Human,CCLE,P,CCLE-DLBC'
p324
(dp325
g3
(dp326
g5
I806
sg6
I88535
ssg7
(dp327
g9
I1896
sg10
I85987
sg11
I1458
ssg12
(dp328
g14
I14
sg15
I7
sg16
I637
sg17
I323
sg18
I2629
sg19
I11503
sg20
I229
sg21
I137
sg22
I62
sg23
I1
sg24
I4706
sg25
I58073
sg26
I14
sg27
I10958
ssg28
(dp329
g23
I89135
sg22
I62
sg15
I7
sg21
I137
sssS'Human,BrainDataSet,S,temporal_cortex'
p330
(dp331
g3
(dp332
g5
I535
sg6
I20718
ssg7
(dp333
g9
I532
sg10
I20089
sg11
I632
ssg12
(dp334
g14
I3
sg15
I3
sg16
I264
sg17
I107
sg18
I1090
sg19
I5764
sg20
I42
sg21
I69
sg22
I30
sg23
I2
sg24
I1243
sg25
I9762
sg26
I7
sg27
I2841
ssg28
(dp335
g23
I21151
sg22
I30
sg15
I3
sg21
I69
sssS'Human,Roadmap,P,heart_left_ventricle'
p336
(dp337
g3
(dp338
g5
I540
sg6
I37429
ssg7
(dp339
g9
I1087
sg10
I35920
sg11
I962
ssg12
(dp340
g14
I5
sg15
I5
sg16
I333
sg17
I129
sg18
I959
sg19
I4997
sg20
I60
sg21
I65
sg22
I37
sg23
I1
sg24
I1917
sg25
I25264
sg26
I3
sg27
I4172
ssg28
(dp341
g23
I37862
sg22
I37
sg15
I5
sg21
I65
sssS'Human,Roadmap,S,muscle_leg'
p342
(dp343
g3
(dp344
g5
I628
sg6
I72382
ssg7
(dp345
g9
I2393
sg10
I68968
sg11
I1649
ssg12
(dp346
g14
I8
sg15
I5
sg16
I304
sg17
I145
sg18
I1025
sg19
I4612
sg20
I64
sg21
I73
sg22
I35
sg23
I0
sg24
I2728
sg25
I57635
sg26
I6
sg27
I6353
ssg28
(dp347
g23
I72897
sg22
I35
sg15
I5
sg21
I73
sssS'Human,GEUV,P,CEU'
p348
(dp349
g3
(dp350
g5
I1683
sg6
I206784
ssg7
(dp351
g9
I5554
sg10
I198529
sg11
I4384
ssg12
(dp352
g14
I21
sg15
I16
sg16
I1351
sg17
I511
sg18
I4572
sg19
I20002
sg20
I462
sg21
I315
sg22
I137
sg23
I5
sg24
I11744
sg25
I141851
sg26
I29
sg27
I27384
ssg28
(dp353
g23
I207999
sg22
I137
sg15
I16
sg21
I315
sssS'Human,Encode,D,HAoAF'
p354
(dp355
g3
(dp356
g5
I215
sg6
I7372
ssg7
(dp357
g9
I0
sg10
I7587
sg11
I0
ssg12
(dp358
g14
I1
sg15
I0
sg16
I33
sg17
I17
sg18
I88
sg19
I634
sg20
I11
sg21
I1
sg22
I1
sg23
I0
sg24
I350
sg25
I5682
sg26
I0
sg27
I767
ssg28
(dp359
g23
I7585
sg22
I1
sg15
I0
sg21
I1
sssS'Human,CCLE,P,CCLE-THCA'
p360
(dp361
g3
(dp362
g5
I516
sg6
I34269
ssg7
(dp363
g9
I758
sg10
I33386
sg11
I641
ssg12
(dp364
g14
I6
sg15
I6
sg16
I304
sg17
I162
sg18
I1249
sg19
I6415
sg20
I64
sg21
I80
sg22
I33
sg23
I1
sg24
I1773
sg25
I20481
sg26
I6
sg27
I4181
ssg28
(dp365
g23
I34666
sg22
I33
sg15
I6
sg21
I80
sssS'Human,Encode,G,CD20+'
p366
(dp367
g3
(dp368
g5
I0
sg6
I121868
ssg7
(dp369
g9
I4118
sg10
I114427
sg11
I3323
ssg12
(dp370
g14
I10
sg15
I9
sg16
I496
sg17
I267
sg18
I1771
sg19
I7281
sg20
I205
sg21
I171
sg22
I74
sg23
I5
sg24
I4355
sg25
I97943
sg26
I10
sg27
I9246
ssg28
(dp371
g23
I121614
sg22
I74
sg15
I9
sg21
I171
sssS'Human,Encode,G,SK-N-SH_RA'
p372
(dp373
g3
(dp374
g5
I0
sg6
I61698
ssg7
(dp375
g9
I2975
sg10
I56853
sg11
I1870
ssg12
(dp376
g14
I8
sg15
I6
sg16
I404
sg17
I167
sg18
I1291
sg19
I5964
sg20
I140
sg21
I73
sg22
I38
sg23
I1
sg24
I3275
sg25
I44092
sg26
I7
sg27
I6210
ssg28
(dp377
g23
I61581
sg22
I38
sg15
I6
sg21
I73
sssS'Human,Encode,S,BJ'
p378
(dp379
g3
(dp380
g5
I685
sg6
I60921
ssg7
(dp381
g9
I2061
sg10
I58102
sg11
I1443
ssg12
(dp382
g14
I7
sg15
I6
sg16
I388
sg17
I160
sg18
I1283
sg19
I6660
sg20
I98
sg21
I71
sg22
I35
sg23
I1
sg24
I2742
sg25
I43706
sg26
I5
sg27
I6418
ssg28
(dp383
g23
I61494
sg22
I35
sg15
I6
sg21
I71
sssS'Human,Encode,P,Monocytes-CD14+'
p384
(dp385
g3
(dp386
g5
I819
sg6
I80638
ssg7
(dp387
g9
I2854
sg10
I76085
sg11
I2518
ssg12
(dp388
g14
I8
sg15
I5
sg16
I339
sg17
I197
sg18
I1399
sg19
I6610
sg20
I140
sg21
I93
sg22
I43
sg23
I1
sg24
I2818
sg25
I63216
sg26
I8
sg27
I6557
ssg28
(dp389
g23
I81316
sg22
I43
sg15
I5
sg21
I93
sssS'Human,CCLE,D,CCLE-SARC'
p390
(dp391
g3
(dp392
g5
I454
sg6
I23835
ssg7
(dp393
g9
I0
sg10
I24289
sg11
I0
ssg12
(dp394
g14
I2
sg15
I2
sg16
I145
sg17
I59
sg18
I429
sg19
I1803
sg20
I57
sg21
I20
sg22
I3
sg23
I0
sg24
I1180
sg25
I17795
sg26
I0
sg27
I2783
ssg28
(dp395
g23
I24264
sg22
I3
sg15
I2
sg21
I20
sssS'Human,CCLE,S,CCLE-UCEC'
p396
(dp397
g3
(dp398
g5
I344
sg6
I19589
ssg7
(dp399
g9
I412
sg10
I18916
sg11
I605
ssg12
(dp400
g14
I6
sg15
I3
sg16
I227
sg17
I113
sg18
I596
sg19
I4365
sg20
I33
sg21
I83
sg22
I37
sg23
I0
sg24
I875
sg25
I11441
sg26
I2
sg27
I2138
ssg28
(dp401
g23
I19810
sg22
I37
sg15
I3
sg21
I83
sssS'Human,Encode,D,NHEM.f_M2'
p402
(dp403
g3
(dp404
g5
I181
sg6
I6321
ssg7
(dp405
g9
I0
sg10
I6502
sg11
I0
ssg12
(dp406
g14
I0
sg15
I0
sg16
I35
sg17
I12
sg18
I82
sg19
I810
sg20
I5
sg21
I1
sg22
I1
sg23
I0
sg24
I227
sg25
I4797
sg26
I0
sg27
I531
ssg28
(dp407
g23
I6500
sg22
I1
sg15
I0
sg21
I1
sssS'Human,CCLE,G,CCLE-PAAD'
p408
(dp409
g3
(dp410
g5
I0
sg6
I77546
ssg7
(dp411
g9
I2750
sg10
I72316
sg11
I2480
ssg12
(dp412
g14
I17
sg15
I8
sg16
I687
sg17
I381
sg18
I2205
sg19
I11276
sg20
I196
sg21
I237
sg22
I98
sg23
I5
sg24
I4570
sg25
I49206
sg26
I12
sg27
I8602
ssg28
(dp413
g23
I77203
sg22
I98
sg15
I8
sg21
I237
sssS'Human,Roadmap,P,adrenal_gland'
p414
(dp415
g3
(dp416
g5
I1219
sg6
I156942
ssg7
(dp417
g9
I5110
sg10
I149876
sg11
I3175
ssg12
(dp418
g14
I14
sg15
I9
sg16
I751
sg17
I313
sg18
I2619
sg19
I10411
sg20
I197
sg21
I136
sg22
I74
sg23
I1
sg24
I6771
sg25
I121269
sg26
I12
sg27
I15531
ssg28
(dp419
g23
I157942
sg22
I74
sg15
I9
sg21
I136
sssS'Human,HumanBodyMap,S,brain'
p420
(dp421
g3
(dp422
g5
I337
sg6
I6445
ssg7
(dp423
g9
I338
sg10
I6078
sg11
I366
ssg12
(dp424
g14
I0
sg15
I0
sg16
I119
sg17
I16
sg18
I353
sg19
I2797
sg20
I10
sg21
I29
sg22
I13
sg23
I0
sg24
I339
sg25
I2331
sg26
I1
sg27
I758
ssg28
(dp425
g23
I6740
sg22
I13
sg15
I0
sg21
I29
sssS'Human,ABRF,P,ABRF-ILMN-M-AS'
p426
(dp427
g3
(dp428
g5
I629
sg6
I61144
ssg7
(dp429
g9
I1237
sg10
I59417
sg11
I1119
ssg12
(dp430
g14
I3
sg15
I5
sg16
I229
sg17
I88
sg18
I836
sg19
I3707
sg20
I71
sg21
I50
sg22
I22
sg23
I0
sg24
I2294
sg25
I48843
sg26
I3
sg27
I5609
ssg28
(dp431
g23
I61696
sg22
I22
sg15
I5
sg21
I50
sssS'Human,Roadmap,S,small_intestine'
p432
(dp433
g3
(dp434
g5
I1048
sg6
I94410
ssg7
(dp435
g9
I2548
sg10
I90675
sg11
I2235
ssg12
(dp436
g14
I15
sg15
I9
sg16
I746
sg17
I250
sg18
I2211
sg19
I10840
sg20
I178
sg21
I284
sg22
I94
sg23
I15
sg24
I5103
sg25
I64505
sg26
I10
sg27
I11157
ssg28
(dp437
g23
I95071
sg22
I94
sg15
I9
sg21
I284
sssS'Human,Roadmap,P,liver'
p438
(dp439
g3
(dp440
g5
I546
sg6
I21141
ssg7
(dp441
g9
I621
sg10
I20437
sg11
I629
ssg12
(dp442
g14
I4
sg15
I3
sg16
I372
sg17
I69
sg18
I865
sg19
I8012
sg20
I90
sg21
I85
sg22
I36
sg23
I1
sg24
I1346
sg25
I8324
sg26
I6
sg27
I2441
ssg28
(dp443
g23
I21563
sg22
I36
sg15
I3
sg21
I85
sssS'Human,Encode,S,NHLF'
p444
(dp445
g3
(dp446
g5
I461
sg6
I22634
ssg7
(dp447
g9
I775
sg10
I21551
sg11
I769
ssg12
(dp448
g14
I3
sg15
I3
sg16
I260
sg17
I107
sg18
I809
sg19
I5545
sg20
I62
sg21
I70
sg22
I21
sg23
I0
sg24
I1312
sg25
I12245
sg26
I4
sg27
I2647
ssg28
(dp449
g23
I23001
sg22
I21
sg15
I3
sg21
I70
sssS'Human,Encode,G,GM12892'
p450
(dp451
g3
(dp452
g5
I0
sg6
I42880
ssg7
(dp453
g9
I1240
sg10
I40410
sg11
I1230
ssg12
(dp454
g14
I3
sg15
I3
sg16
I288
sg17
I155
sg18
I1021
sg19
I5458
sg20
I115
sg21
I62
sg22
I34
sg23
I0
sg24
I1808
sg25
I29829
sg26
I9
sg27
I4080
ssg28
(dp455
g23
I42781
sg22
I34
sg15
I3
sg21
I62
sssS'Human,Encode,G,GM12891'
p456
(dp457
g3
(dp458
g5
I0
sg6
I11497
ssg7
(dp459
g9
I281
sg10
I10904
sg11
I312
ssg12
(dp460
g14
I2
sg15
I1
sg16
I91
sg17
I50
sg18
I350
sg19
I2110
sg20
I34
sg21
I16
sg22
I8
sg23
I0
sg24
I491
sg25
I7192
sg26
I2
sg27
I1146
ssg28
(dp461
g23
I11472
sg22
I8
sg15
I1
sg21
I16
sssS'Human,Encode,D,A549'
p462
(dp463
g3
(dp464
g5
I418
sg6
I25169
ssg7
(dp465
g9
I0
sg10
I25587
sg11
I0
ssg12
(dp466
g14
I1
sg15
I2
sg16
I130
sg17
I58
sg18
I292
sg19
I1374
sg20
I63
sg21
I16
sg22
I6
sg23
I0
sg24
I1181
sg25
I19922
sg26
I0
sg27
I2535
ssg28
(dp467
g23
I25563
sg22
I6
sg15
I2
sg21
I16
sssS'Human,ABRF,D,ABRF-ILMN-R-A'
p468
(dp469
g3
(dp470
g5
I50
sg6
I7149
ssg7
(dp471
g9
I0
sg10
I7199
sg11
I0
ssg12
(dp472
g14
I0
sg15
I0
sg16
I26
sg17
I16
sg18
I100
sg19
I527
sg20
I12
sg21
I7
sg22
I1
sg23
I0
sg24
I282
sg25
I5564
sg26
I0
sg27
I664
ssg28
(dp473
g23
I7191
sg22
I1
sg15
I0
sg21
I7
sssS'Human,ABRF,D,ABRF-ILMN-R-B'
p474
(dp475
g3
(dp476
g5
I58
sg6
I8672
ssg7
(dp477
g9
I0
sg10
I8730
sg11
I0
ssg12
(dp478
g14
I0
sg15
I0
sg16
I32
sg17
I17
sg18
I131
sg19
I740
sg20
I9
sg21
I7
sg22
I1
sg23
I1
sg24
I328
sg25
I6664
sg26
I1
sg27
I797
ssg28
(dp479
g23
I8722
sg22
I1
sg15
I0
sg21
I7
sssS'Human,CCLE,S,CCLE-COAD'
p480
(dp481
g3
(dp482
g5
I979
sg6
I103386
ssg7
(dp483
g9
I3940
sg10
I86757
sg11
I13668
ssg12
(dp484
g14
I16
sg15
I14
sg16
I805
sg17
I720
sg18
I3191
sg19
I16434
sg20
I250
sg21
I3016
sg22
I948
sg23
I16
sg24
I4806
sg25
I62119
sg26
I14
sg27
I11958
ssg28
(dp485
g23
I100387
sg22
I948
sg15
I14
sg21
I3016
sssS'Human,Roadmap,D,H1_cell_line'
p486
(dp487
g3
(dp488
g5
I176
sg6
I9793
ssg7
(dp489
g9
I0
sg10
I9969
sg11
I0
ssg12
(dp490
g14
I1
sg15
I1
sg16
I69
sg17
I27
sg18
I182
sg19
I1068
sg20
I17
sg21
I10
sg22
I1
sg23
I0
sg24
I524
sg25
I6838
sg26
I0
sg27
I1226
ssg28
(dp491
g23
I9957
sg22
I1
sg15
I1
sg21
I10
sssS'Human,Roadmap,G,liver'
p492
(dp493
g3
(dp494
g5
I0
sg6
I19758
ssg7
(dp495
g9
I579
sg10
I18511
sg11
I668
ssg12
(dp496
g14
I5
sg15
I3
sg16
I368
sg17
I67
sg18
I687
sg19
I7416
sg20
I82
sg21
I94
sg22
I42
sg23
I1
sg24
I1348
sg25
I7727
sg26
I6
sg27
I1877
ssg28
(dp497
g23
I19619
sg22
I42
sg15
I3
sg21
I94
sssS'Human,HumanBodyMap,S,breast'
p498
(dp499
g3
(dp500
g5
I339
sg6
I8716
ssg7
(dp501
g9
I305
sg10
I8368
sg11
I382
ssg12
(dp502
g14
I2
sg15
I2
sg16
I142
sg17
I24
sg18
I400
sg19
I3475
sg20
I23
sg21
I58
sg22
I26
sg23
I1
sg24
I501
sg25
I3282
sg26
I2
sg27
I1103
ssg28
(dp503
g23
I8969
sg22
I26
sg15
I2
sg21
I58
sssS'Human,Roadmap,D,CD4_primary_cells'
p504
(dp505
g3
(dp506
g5
I245
sg6
I15327
ssg7
(dp507
g9
I1
sg10
I15571
sg11
I0
ssg12
(dp508
g14
I0
sg15
I0
sg16
I85
sg17
I45
sg18
I236
sg19
I1090
sg20
I27
sg21
I11
sg22
I3
sg23
I0
sg24
I643
sg25
I11769
sg26
I0
sg27
I1658
ssg28
(dp509
g23
I15558
sg22
I3
sg15
I0
sg21
I11
sssS'Human,SEQC,P,ILM_MAY_D'
p510
(dp511
g3
(dp512
g5
I1597
sg6
I169538
ssg7
(dp513
g9
I4165
sg10
I163116
sg11
I3854
ssg12
(dp514
g14
I28
sg15
I15
sg16
I1569
sg17
I681
sg18
I6123
sg19
I25337
sg20
I392
sg21
I349
sg22
I164
sg23
I6
sg24
I10175
sg25
I103593
sg26
I24
sg27
I22574
ssg28
(dp515
g23
I170607
sg22
I164
sg15
I15
sg21
I349
sssS'Human,CCLE,D,CCLE-SKCM'
p516
(dp517
g3
(dp518
g5
I439
sg6
I24575
ssg7
(dp519
g9
I1
sg10
I25013
sg11
I0
ssg12
(dp520
g14
I1
sg15
I1
sg16
I143
sg17
I68
sg18
I445
sg19
I1824
sg20
I52
sg21
I25
sg22
I2
sg23
I0
sg24
I1144
sg25
I18467
sg26
I0
sg27
I2836
ssg28
(dp521
g23
I24986
sg22
I2
sg15
I1
sg21
I25
sssS'Human,SEQC,P,ILM_MAY_A'
p522
(dp523
g3
(dp524
g5
I1371
sg6
I128699
ssg7
(dp525
g9
I2749
sg10
I125017
sg11
I2304
ssg12
(dp526
g14
I24
sg15
I15
sg16
I1203
sg17
I490
sg18
I4598
sg19
I19865
sg20
I300
sg21
I250
sg22
I123
sg23
I4
sg24
I7565
sg25
I78324
sg26
I24
sg27
I17212
ssg28
(dp527
g23
I129682
sg22
I123
sg15
I15
sg21
I250
sssS'Human,SEQC,P,ILM_MAY_B'
p528
(dp529
g3
(dp530
g5
I1657
sg6
I193779
ssg7
(dp531
g9
I5036
sg10
I185961
sg11
I4439
ssg12
(dp532
g14
I31
sg15
I17
sg16
I1811
sg17
I779
sg18
I6880
sg19
I27231
sg20
I435
sg21
I369
sg22
I160
sg23
I6
sg24
I11774
sg25
I120161
sg26
I29
sg27
I25634
ssg28
(dp533
g23
I194890
sg22
I160
sg15
I17
sg21
I369
sssS'Human,Encode,G,HAoAF'
p534
(dp535
g3
(dp536
g5
I0
sg6
I44788
ssg7
(dp537
g9
I2531
sg10
I40791
sg11
I1466
ssg12
(dp538
g14
I7
sg15
I2
sg16
I213
sg17
I91
sg18
I697
sg19
I3817
sg20
I58
sg21
I34
sg22
I17
sg23
I0
sg24
I2235
sg25
I33676
sg26
I3
sg27
I3923
ssg28
(dp539
g23
I44735
sg22
I17
sg15
I2
sg21
I34
sssS'Human,CCLE,P,CCLE-LIHC'
p540
(dp541
g3
(dp542
g5
I653
sg6
I58305
ssg7
(dp543
g9
I1167
sg10
I56825
sg11
I966
ssg12
(dp544
g14
I9
sg15
I8
sg16
I521
sg17
I225
sg18
I1744
sg19
I9110
sg20
I125
sg21
I104
sg22
I57
sg23
I0
sg24
I2892
sg25
I37470
sg26
I8
sg27
I6650
ssg28
(dp545
g23
I58789
sg22
I57
sg15
I8
sg21
I104
sssS'Human,HumanBodyMap,P,breast'
p546
(dp547
g3
(dp548
g5
I348
sg6
I10276
ssg7
(dp549
g9
I370
sg10
I9712
sg11
I542
ssg12
(dp550
g14
I3
sg15
I2
sg16
I148
sg17
I31
sg18
I436
sg19
I3636
sg20
I24
sg21
I66
sg22
I29
sg23
I1
sg24
I604
sg25
I4343
sg26
I2
sg27
I1285
ssg28
(dp551
g23
I10527
sg22
I29
sg15
I2
sg21
I66
sssS'Human,Roadmap,G,esophagus'
p552
(dp553
g3
(dp554
g5
I0
sg6
I71111
ssg7
(dp555
g9
I1802
sg10
I67832
sg11
I1477
ssg12
(dp556
g14
I14
sg15
I4
sg16
I477
sg17
I228
sg18
I1380
sg19
I7207
sg20
I128
sg21
I120
sg22
I53
sg23
I1
sg24
I3493
sg25
I51747
sg26
I9
sg27
I6213
ssg28
(dp557
g23
I70934
sg22
I53
sg15
I4
sg21
I120
sssS'Human,Encode,P,NHEK'
p558
(dp559
g3
(dp560
g5
I1398
sg6
I172991
ssg7
(dp561
g9
I6923
sg10
I162445
sg11
I5021
ssg12
(dp562
g14
I10
sg15
I9
sg16
I870
sg17
I401
sg18
I2529
sg19
I11519
sg20
I262
sg21
I133
sg22
I72
sg23
I1
sg24
I7814
sg25
I133934
sg26
I18
sg27
I16757
ssg28
(dp563
g23
I174175
sg22
I72
sg15
I9
sg21
I133
sssS'Human,Roadmap,P,bladder'
p564
(dp565
g3
(dp566
g5
I519
sg6
I22844
ssg7
(dp567
g9
I643
sg10
I22069
sg11
I651
ssg12
(dp568
g14
I7
sg15
I5
sg16
I345
sg17
I143
sg18
I1137
sg19
I6659
sg20
I59
sg21
I102
sg22
I39
sg23
I1
sg24
I1431
sg25
I10214
sg26
I4
sg27
I3198
ssg28
(dp569
g23
I23217
sg22
I39
sg15
I5
sg21
I102
sssS'Human,ABRF,G,ABRF-ILMN-L-B'
p570
(dp571
g3
(dp572
g5
I0
sg6
I80607
ssg7
(dp573
g9
I2227
sg10
I76590
sg11
I1790
ssg12
(dp574
g14
I9
sg15
I6
sg16
I371
sg17
I141
sg18
I1190
sg19
I6316
sg20
I76
sg21
I105
sg22
I45
sg23
I0
sg24
I2905
sg25
I63500
sg26
I7
sg27
I5911
ssg28
(dp575
g23
I80451
sg22
I45
sg15
I6
sg21
I105
sssS'Human,GEUV,D,GBR'
p576
(dp577
g3
(dp578
g5
I368
sg6
I34627
ssg7
(dp579
g9
I2
sg10
I34993
sg11
I0
ssg12
(dp580
g14
I4
sg15
I2
sg16
I181
sg17
I102
sg18
I715
sg19
I2852
sg20
I68
sg21
I41
sg22
I15
sg23
I0
sg24
I1686
sg25
I24849
sg26
I1
sg27
I4470
ssg28
(dp581
g23
I34937
sg22
I15
sg15
I2
sg21
I41
sssS'Human,SEQC,P,ILM_CNL_B'
p582
(dp583
g3
(dp584
g5
I1819
sg6
I231899
ssg7
(dp585
g9
I5539
sg10
I223249
sg11
I4930
ssg12
(dp586
g14
I36
sg15
I18
sg16
I2077
sg17
I848
sg18
I7706
sg19
I29758
sg20
I503
sg21
I378
sg22
I193
sg23
I6
sg24
I14223
sg25
I147045
sg26
I32
sg27
I30764
ssg28
(dp587
g23
I233129
sg22
I193
sg15
I18
sg21
I378
sssS'Human,Roadmap,S,adrenal_gland'
p588
(dp589
g3
(dp590
g5
I1237
sg6
I154389
ssg7
(dp591
g9
I5848
sg10
I146182
sg11
I3596
ssg12
(dp592
g14
I12
sg15
I10
sg16
I696
sg17
I315
sg18
I2540
sg19
I10399
sg20
I185
sg21
I148
sg22
I79
sg23
I1
sg24
I6415
sg25
I119710
sg26
I12
sg27
I15048
ssg28
(dp593
g23
I155389
sg22
I79
sg15
I10
sg21
I148
sssS'Human,ABRF,D,ABRF-ILMN-V-B'
p594
(dp595
g3
(dp596
g5
I76
sg6
I9226
ssg7
(dp597
g9
I0
sg10
I9302
sg11
I0
ssg12
(dp598
g14
I0
sg15
I1
sg16
I41
sg17
I15
sg18
I148
sg19
I820
sg20
I11
sg21
I7
sg22
I2
sg23
I0
sg24
I332
sg25
I7114
sg26
I0
sg27
I809
ssg28
(dp599
g23
I9292
sg22
I2
sg15
I1
sg21
I7
sssS'Human,SEQC,P,ILM_CNL_A'
p600
(dp601
g3
(dp602
g5
I1448
sg6
I153525
ssg7
(dp603
g9
I3005
sg10
I149621
sg11
I2347
ssg12
(dp604
g14
I28
sg15
I15
sg16
I1346
sg17
I552
sg18
I5255
sg19
I21701
sg20
I336
sg21
I285
sg22
I141
sg23
I3
sg24
I9021
sg25
I95608
sg26
I21
sg27
I20590
ssg28
(dp605
g23
I154532
sg22
I141
sg15
I15
sg21
I285
sssS'Human,SEQC,P,ILM_CNL_D'
p606
(dp607
g3
(dp608
g5
I1824
sg6
I222449
ssg7
(dp609
g9
I5271
sg10
I214419
sg11
I4583
ssg12
(dp610
g14
I40
sg15
I20
sg16
I1951
sg17
I835
sg18
I7507
sg19
I28929
sg20
I477
sg21
I396
sg22
I192
sg23
I6
sg24
I13377
sg25
I140737
sg26
I33
sg27
I29656
ssg28
(dp611
g23
I223665
sg22
I192
sg15
I20
sg21
I396
sssS'Human,Roadmap,S,CD8_primary_cells'
p612
(dp613
g3
(dp614
g5
I977
sg6
I118159
ssg7
(dp615
g9
I4787
sg10
I110797
sg11
I3552
ssg12
(dp616
g14
I9
sg15
I7
sg16
I668
sg17
I259
sg18
I2031
sg19
I8355
sg20
I187
sg21
I125
sg22
I71
sg23
I0
sg24
I4766
sg25
I90448
sg26
I14
sg27
I12151
ssg28
(dp617
g23
I118933
sg22
I71
sg15
I7
sg21
I125
sssS'Human,CCLE,S,CCLE-MM'
p618
(dp619
g3
(dp620
g5
I776
sg6
I71000
ssg7
(dp621
g9
I2211
sg10
I66179
sg11
I3386
ssg12
(dp622
g14
I13
sg15
I11
sg16
I604
sg17
I373
sg18
I2496
sg19
I11255
sg20
I178
sg21
I483
sg22
I186
sg23
I3
sg24
I3672
sg25
I43445
sg26
I12
sg27
I8998
ssg28
(dp623
g23
I71096
sg22
I186
sg15
I11
sg21
I483
sssS'Human,Encode,P,NHLF'
p624
(dp625
g3
(dp626
g5
I464
sg6
I23132
ssg7
(dp627
g9
I783
sg10
I21985
sg11
I828
ssg12
(dp628
g14
I3
sg15
I3
sg16
I276
sg17
I108
sg18
I827
sg19
I5528
sg20
I66
sg21
I67
sg22
I20
sg23
I0
sg24
I1376
sg25
I12595
sg26
I4
sg27
I2716
ssg28
(dp629
g23
I23506
sg22
I20
sg15
I3
sg21
I67
sssS'Human,CCLE,P,CCLE-KIRC'
p630
(dp631
g3
(dp632
g5
I610
sg6
I43234
ssg7
(dp633
g9
I1031
sg10
I41990
sg11
I823
ssg12
(dp634
g14
I9
sg15
I8
sg16
I422
sg17
I207
sg18
I1494
sg19
I8356
sg20
I111
sg21
I82
sg22
I35
sg23
I1
sg24
I2276
sg25
I25519
sg26
I6
sg27
I5283
ssg28
(dp635
g23
I43719
sg22
I35
sg15
I8
sg21
I82
sssS'Human,Roadmap,P,muscle_leg'
p636
(dp637
g3
(dp638
g5
I638
sg6
I78803
ssg7
(dp639
g9
I2553
sg10
I75137
sg11
I1751
ssg12
(dp640
g14
I8
sg15
I4
sg16
I324
sg17
I151
sg18
I1080
sg19
I4643
sg20
I69
sg21
I67
sg22
I34
sg23
I0
sg24
I2988
sg25
I63075
sg26
I6
sg27
I6974
ssg28
(dp641
g23
I79336
sg22
I34
sg15
I4
sg21
I67
sssS'Human,CCLE,G,CCLE-STAD'
p642
(dp643
g3
(dp644
g5
I0
sg6
I72580
ssg7
(dp645
g9
I2627
sg10
I67461
sg11
I2492
ssg12
(dp646
g14
I18
sg15
I7
sg16
I608
sg17
I302
sg18
I1982
sg19
I10078
sg20
I183
sg21
I242
sg22
I96
sg23
I4
sg24
I4228
sg25
I46910
sg26
I10
sg27
I7865
ssg28
(dp647
g23
I72235
sg22
I96
sg15
I7
sg21
I242
sssS'Human,Roadmap,G,CD14_primary_cells'
p648
(dp649
g3
(dp650
g5
I0
sg6
I92449
ssg7
(dp651
g9
I4245
sg10
I84769
sg11
I3435
ssg12
(dp652
g14
I8
sg15
I6
sg16
I343
sg17
I122
sg18
I970
sg19
I5027
sg20
I75
sg21
I83
sg22
I32
sg23
I1
sg24
I2656
sg25
I78042
sg26
I5
sg27
I5054
ssg28
(dp653
g23
I92328
sg22
I32
sg15
I6
sg21
I83
sssS'Human,Encode,P,HSMM'
p654
(dp655
g3
(dp656
g5
I447
sg6
I24671
ssg7
(dp657
g9
I647
sg10
I23773
sg11
I698
ssg12
(dp658
g14
I5
sg15
I5
sg16
I271
sg17
I109
sg18
I845
sg19
I5235
sg20
I54
sg21
I58
sg22
I23
sg23
I1
sg24
I1523
sg25
I13918
sg26
I7
sg27
I3051
ssg28
(dp659
g23
I25032
sg22
I23
sg15
I5
sg21
I58
sssS'Human,Encode,G,HPC-PL'
p660
(dp661
g3
(dp662
g5
I0
sg6
I45359
ssg7
(dp663
g9
I2069
sg10
I41724
sg11
I1566
ssg12
(dp664
g14
I7
sg15
I4
sg16
I224
sg17
I79
sg18
I615
sg19
I4517
sg20
I50
sg21
I39
sg22
I18
sg23
I0
sg24
I1931
sg25
I34299
sg26
I5
sg27
I3554
ssg28
(dp665
g23
I45298
sg22
I18
sg15
I4
sg21
I39
sssS'Human,Encode,D,HeLa-S3'
p666
(dp667
g3
(dp668
g5
I485
sg6
I26191
ssg7
(dp669
g9
I1
sg10
I26674
sg11
I1
ssg12
(dp670
g14
I1
sg15
I2
sg16
I138
sg17
I51
sg18
I354
sg19
I1550
sg20
I61
sg21
I18
sg22
I8
sg23
I0
sg24
I1286
sg25
I20188
sg26
I0
sg27
I3012
ssg28
(dp671
g23
I26648
sg22
I8
sg15
I2
sg21
I18
sssS'Human,Encode,S,HMEpC'
p672
(dp673
g3
(dp674
g5
I279
sg6
I16942
ssg7
(dp675
g9
I935
sg10
I15620
sg11
I666
ssg12
(dp676
g14
I4
sg15
I2
sg16
I90
sg17
I49
sg18
I320
sg19
I2293
sg20
I20
sg21
I39
sg22
I13
sg23
I1
sg24
I672
sg25
I11971
sg26
I2
sg27
I1740
ssg28
(dp677
g23
I17167
sg22
I13
sg15
I2
sg21
I39
sssS'Human,Encode,G,MCF-7'
p678
(dp679
g3
(dp680
g5
I0
sg6
I126121
ssg7
(dp681
g9
I3666
sg10
I119203
sg11
I3252
ssg12
(dp682
g14
I12
sg15
I9
sg16
I630
sg17
I318
sg18
I1974
sg19
I7242
sg20
I295
sg21
I115
sg22
I64
sg23
I1
sg24
I6799
sg25
I96798
sg26
I16
sg27
I11815
ssg28
(dp683
g23
I125933
sg22
I64
sg15
I9
sg21
I115
sssS'Human,ABRF,S,ABRF-ILMN-M-AH'
p684
(dp685
g3
(dp686
g5
I678
sg6
I59601
ssg7
(dp687
g9
I1355
sg10
I57791
sg11
I1133
ssg12
(dp688
g14
I7
sg15
I3
sg16
I230
sg17
I94
sg18
I883
sg19
I3917
sg20
I67
sg21
I45
sg22
I28
sg23
I1
sg24
I2298
sg25
I47406
sg26
I3
sg27
I5284
ssg28
(dp689
g23
I60203
sg22
I28
sg15
I3
sg21
I45
sssS'Human,Encode,G,HepG2'
p690
(dp691
g3
(dp692
g5
I0
sg6
I115404
ssg7
(dp693
g9
I3486
sg10
I109255
sg11
I2663
ssg12
(dp694
g14
I10
sg15
I6
sg16
I508
sg17
I246
sg18
I1632
sg19
I7132
sg20
I210
sg21
I96
sg22
I52
sg23
I1
sg24
I5733
sg25
I88631
sg26
I8
sg27
I11110
ssg28
(dp695
g23
I115250
sg22
I52
sg15
I6
sg21
I96
sssS'Human,Encode,G,NHLF'
p696
(dp697
g3
(dp698
g5
I0
sg6
I21497
ssg7
(dp699
g9
I753
sg10
I19951
sg11
I793
ssg12
(dp700
g14
I4
sg15
I3
sg16
I261
sg17
I104
sg18
I667
sg19
I5144
sg20
I57
sg21
I57
sg22
I19
sg23
I0
sg24
I1378
sg25
I11812
sg26
I3
sg27
I1979
ssg28
(dp701
g23
I21418
sg22
I19
sg15
I3
sg21
I57
sssS'Human,CCLE,D,CCLE-LIHC'
p702
(dp703
g3
(dp704
g5
I422
sg6
I22807
ssg7
(dp705
g9
I1
sg10
I23227
sg11
I1
ssg12
(dp706
g14
I0
sg15
I2
sg16
I132
sg17
I57
sg18
I409
sg19
I1708
sg20
I62
sg21
I16
sg22
I9
sg23
I0
sg24
I1082
sg25
I17135
sg26
I0
sg27
I2610
ssg28
(dp707
g23
I23202
sg22
I9
sg15
I2
sg21
I16
sssS'Human,ABRF,P,ABRF-ILMN-N-AH'
p708
(dp709
g3
(dp710
g5
I362
sg6
I24104
ssg7
(dp711
g9
I514
sg10
I23484
sg11
I468
ssg12
(dp712
g14
I3
sg15
I1
sg16
I98
sg17
I39
sg18
I439
sg19
I2149
sg20
I31
sg21
I26
sg22
I11
sg23
I0
sg24
I947
sg25
I18559
sg26
I2
sg27
I2150
ssg28
(dp713
g23
I24428
sg22
I11
sg15
I1
sg21
I26
sssS'Human,ABRF,G,ABRF-ILMN-V-B'
p714
(dp715
g3
(dp716
g5
I0
sg6
I86263
ssg7
(dp717
g9
I2375
sg10
I81932
sg11
I1956
ssg12
(dp718
g14
I10
sg15
I9
sg16
I383
sg17
I157
sg18
I1250
sg19
I6466
sg20
I94
sg21
I89
sg22
I41
sg23
I1
sg24
I3219
sg25
I68246
sg26
I6
sg27
I6256
ssg28
(dp719
g23
I86124
sg22
I41
sg15
I9
sg21
I89
sssS'Human,Encode,P,AG04450'
p720
(dp721
g3
(dp722
g5
I621
sg6
I54263
ssg7
(dp723
g9
I2700
sg10
I50166
sg11
I2018
ssg12
(dp724
g14
I5
sg15
I4
sg16
I350
sg17
I151
sg18
I1085
sg19
I6178
sg20
I94
sg21
I72
sg22
I33
sg23
I1
sg24
I2423
sg25
I38784
sg26
I7
sg27
I5679
ssg28
(dp725
g23
I54775
sg22
I33
sg15
I4
sg21
I72
sssS'Human,ABRF,P,ABRF-ILMN-RIBO-A'
p726
(dp727
g3
(dp728
g5
I213
sg6
I13460
ssg7
(dp729
g9
I1826
sg10
I10385
sg11
I1462
ssg12
(dp730
g14
I3
sg15
I0
sg16
I60
sg17
I18
sg18
I223
sg19
I973
sg20
I5
sg21
I16
sg22
I11
sg23
I0
sg24
I566
sg25
I10339
sg26
I0
sg27
I1452
ssg28
(dp731
g23
I13646
sg22
I11
sg15
I0
sg21
I16
sssS'Human,ABRF,P,ABRF-ILMN-RIBO-C'
p732
(dp733
g3
(dp734
g5
I380
sg6
I27368
ssg7
(dp735
g9
I2327
sg10
I23530
sg11
I1891
ssg12
(dp736
g14
I3
sg15
I4
sg16
I111
sg17
I30
sg18
I464
sg19
I1913
sg20
I15
sg21
I38
sg22
I15
sg23
I0
sg24
I1057
sg25
I21401
sg26
I1
sg27
I2682
ssg28
(dp737
g23
I27691
sg22
I15
sg15
I4
sg21
I38
sssS'Human,ABRF,P,ABRF-ILMN-RIBO-B'
p738
(dp739
g3
(dp740
g5
I170
sg6
I8623
ssg7
(dp741
g9
I1135
sg10
I6834
sg11
I824
ssg12
(dp742
g14
I1
sg15
I2
sg16
I52
sg17
I12
sg18
I196
sg19
I999
sg20
I6
sg21
I25
sg22
I7
sg23
I0
sg24
I329
sg25
I6325
sg26
I1
sg27
I834
ssg28
(dp743
g23
I8759
sg22
I7
sg15
I2
sg21
I25
sssS'Human,Roadmap,S,adipose'
p744
(dp745
g3
(dp746
g5
I869
sg6
I50791
ssg7
(dp747
g9
I1317
sg10
I48967
sg11
I1376
ssg12
(dp748
g14
I7
sg15
I5
sg16
I576
sg17
I222
sg18
I1780
sg19
I10390
sg20
I130
sg21
I155
sg22
I47
sg23
I3
sg24
I2785
sg25
I29511
sg26
I10
sg27
I6003
ssg28
(dp749
g23
I51453
sg22
I47
sg15
I5
sg21
I155
sssS'Human,ABRF,P,ABRF-ILMN-RIBO-D'
p750
(dp751
g3
(dp752
g5
I435
sg6
I39439
ssg7
(dp753
g9
I3135
sg10
I34501
sg11
I2238
ssg12
(dp754
g14
I4
sg15
I2
sg16
I164
sg17
I62
sg18
I616
sg19
I2587
sg20
I33
sg21
I42
sg22
I17
sg23
I0
sg24
I1539
sg25
I31194
sg26
I1
sg27
I3600
ssg28
(dp755
g23
I39813
sg22
I17
sg15
I2
sg21
I42
sssS'Human,Roadmap,S,CD19_primary_cells'
p756
(dp757
g3
(dp758
g5
I915
sg6
I130695
ssg7
(dp759
g9
I5880
sg10
I121695
sg11
I4035
ssg12
(dp760
g14
I7
sg15
I6
sg16
I429
sg17
I194
sg18
I1524
sg19
I5632
sg20
I116
sg21
I110
sg22
I49
sg23
I0
sg24
I3971
sg25
I108560
sg26
I10
sg27
I10973
ssg28
(dp761
g23
I131445
sg22
I49
sg15
I6
sg21
I110
sssS'Human,CCLE,S,CCLE-SKCM'
p762
(dp763
g3
(dp764
g5
I750
sg6
I63852
ssg7
(dp765
g9
I1770
sg10
I59760
sg11
I3072
ssg12
(dp766
g14
I9
sg15
I9
sg16
I547
sg17
I342
sg18
I2118
sg19
I11111
sg20
I137
sg21
I453
sg22
I182
sg23
I3
sg24
I3056
sg25
I39058
sg26
I9
sg27
I7522
ssg28
(dp767
g23
I63958
sg22
I182
sg15
I9
sg21
I453
sssS'Human,CCLE,S,CCLE-BRCA'
p768
(dp769
g3
(dp770
g5
I991
sg6
I107479
ssg7
(dp771
g9
I2987
sg10
I100182
sg11
I5301
ssg12
(dp772
g14
I20
sg15
I8
sg16
I855
sg17
I588
sg18
I3161
sg19
I14706
sg20
I241
sg21
I754
sg22
I304
sg23
I4
sg24
I5508
sg25
I69684
sg26
I19
sg27
I12560
ssg28
(dp773
g23
I107404
sg22
I304
sg15
I8
sg21
I754
sssS'Human,ABRF,P,ABRF-ILMN-N-AR'
p774
(dp775
g3
(dp776
g5
I684
sg6
I66448
ssg7
(dp777
g9
I1208
sg10
I64825
sg11
I1099
ssg12
(dp778
g14
I6
sg15
I4
sg16
I254
sg17
I98
sg18
I959
sg19
I4104
sg20
I78
sg21
I56
sg22
I28
sg23
I0
sg24
I2565
sg25
I53069
sg26
I5
sg27
I5893
ssg28
(dp779
g23
I67044
sg22
I28
sg15
I4
sg21
I56
sssS'Human,HumanBodyMap,P,prostate'
p780
(dp781
g3
(dp782
g5
I385
sg6
I8217
ssg7
(dp783
g9
I264
sg10
I7958
sg11
I380
ssg12
(dp784
g14
I3
sg15
I1
sg16
I128
sg17
I39
sg18
I466
sg19
I3965
sg20
I22
sg21
I42
sg22
I15
sg23
I0
sg24
I407
sg25
I2402
sg26
I2
sg27
I1102
ssg28
(dp785
g23
I8544
sg22
I15
sg15
I1
sg21
I42
sssS'Human,CCLE,S,CCLE-PAAD'
p786
(dp787
g3
(dp788
g5
I861
sg6
I82606
ssg7
(dp789
g9
I2162
sg10
I77650
sg11
I3655
ssg12
(dp790
g14
I13
sg15
I9
sg16
I708
sg17
I450
sg18
I2594
sg19
I12620
sg20
I187
sg21
I553
sg22
I182
sg23
I8
sg24
I4264
sg25
I51653
sg26
I10
sg27
I10168
ssg28
(dp791
g23
I82723
sg22
I182
sg15
I9
sg21
I553
sssS'Human,SEQC,G,ILM_NVS_C'
p792
(dp793
g3
(dp794
g5
I0
sg6
I132889
ssg7
(dp795
g9
I2916
sg10
I127409
sg11
I2564
ssg12
(dp796
g14
I27
sg15
I18
sg16
I1342
sg17
I601
sg18
I4410
sg19
I22870
sg20
I347
sg21
I280
sg22
I131
sg23
I3
sg24
I7848
sg25
I80565
sg26
I18
sg27
I14340
ssg28
(dp797
g23
I132460
sg22
I131
sg15
I18
sg21
I280
sssS'Human,SEQC,G,ILM_NVS_B'
p798
(dp799
g3
(dp800
g5
I0
sg6
I147766
ssg7
(dp801
g9
I3475
sg10
I141178
sg11
I3113
ssg12
(dp802
g14
I33
sg15
I18
sg16
I1500
sg17
I699
sg18
I4987
sg19
I26464
sg20
I334
sg21
I302
sg22
I138
sg23
I4
sg24
I8571
sg25
I89035
sg26
I20
sg27
I15564
ssg28
(dp803
g23
I147308
sg22
I138
sg15
I18
sg21
I302
sssS'Human,SEQC,G,ILM_NVS_A'
p804
(dp805
g3
(dp806
g5
I0
sg6
I119269
ssg7
(dp807
g9
I2490
sg10
I114671
sg11
I2108
ssg12
(dp808
g14
I26
sg15
I15
sg16
I1180
sg17
I508
sg18
I3874
sg19
I20126
sg20
I315
sg21
I227
sg22
I125
sg23
I2
sg24
I7014
sg25
I72772
sg26
I14
sg27
I13010
ssg28
(dp809
g23
I118902
sg22
I125
sg15
I15
sg21
I227
sssS'Human,Roadmap,P,sigmoid_colon'
p810
(dp811
g3
(dp812
g5
I895
sg6
I82959
ssg7
(dp813
g9
I2295
sg10
I79727
sg11
I1832
ssg12
(dp814
g14
I8
sg15
I6
sg16
I621
sg17
I192
sg18
I1856
sg19
I9437
sg20
I140
sg21
I149
sg22
I66
sg23
I3
sg24
I4046
sg25
I58000
sg26
I10
sg27
I9296
ssg28
(dp815
g23
I83633
sg22
I66
sg15
I6
sg21
I149
sssS'Human,SEQC,G,ILM_NVS_D'
p816
(dp817
g3
(dp818
g5
I0
sg6
I149173
ssg7
(dp819
g9
I3424
sg10
I142598
sg11
I3151
ssg12
(dp820
g14
I38
sg15
I21
sg16
I1488
sg17
I691
sg18
I4958
sg19
I26155
sg20
I341
sg21
I323
sg22
I154
sg23
I3
sg24
I8711
sg25
I90291
sg26
I19
sg27
I15884
ssg28
(dp821
g23
I148675
sg22
I154
sg15
I21
sg21
I323
sssS'Human,SEQC,P,ILM_BGI_D'
p822
(dp823
g3
(dp824
g5
I1767
sg6
I205666
ssg7
(dp825
g9
I4963
sg10
I197712
sg11
I4758
ssg12
(dp826
g14
I38
sg15
I18
sg16
I1824
sg17
I843
sg18
I7288
sg19
I28180
sg20
I457
sg21
I410
sg22
I187
sg23
I3
sg24
I12517
sg25
I128220
sg26
I32
sg27
I27306
ssg28
(dp827
g23
I206818
sg22
I187
sg15
I18
sg21
I410
sssS'Human,BrainDataSet,G,frontal_cortex'
p828
(dp829
g3
(dp830
g5
I0
sg6
I14360
ssg7
(dp831
g9
I339
sg10
I13641
sg11
I380
ssg12
(dp832
g14
I2
sg15
I4
sg16
I205
sg17
I79
sg18
I653
sg19
I3911
sg20
I41
sg21
I42
sg22
I13
sg23
I1
sg24
I847
sg25
I6918
sg26
I2
sg27
I1625
ssg28
(dp833
g23
I14301
sg22
I13
sg15
I4
sg21
I42
sssS'Human,SEQC,P,ILM_BGI_A'
p834
(dp835
g3
(dp836
g5
I1591
sg6
I167620
ssg7
(dp837
g9
I3501
sg10
I162351
sg11
I3359
ssg12
(dp838
g14
I29
sg15
I17
sg16
I1444
sg17
I663
sg18
I5810
sg19
I22751
sg20
I411
sg21
I337
sg22
I161
sg23
I3
sg24
I9819
sg25
I105092
sg26
I28
sg27
I22553
ssg28
(dp839
g23
I168696
sg22
I161
sg15
I17
sg21
I337
sssS'Human,Encode,S,hMSC-AT'
p840
(dp841
g3
(dp842
g5
I672
sg6
I67501
ssg7
(dp843
g9
I3196
sg10
I62596
sg11
I2381
ssg12
(dp844
g14
I8
sg15
I4
sg16
I284
sg17
I116
sg18
I895
sg19
I5437
sg20
I68
sg21
I59
sg22
I24
sg23
I0
sg24
I2957
sg25
I51624
sg26
I3
sg27
I6673
ssg28
(dp845
g23
I68086
sg22
I24
sg15
I4
sg21
I59
sssS'Human,SEQC,P,ILM_BGI_C'
p846
(dp847
g3
(dp848
g5
I1793
sg6
I213028
ssg7
(dp849
g9
I5262
sg10
I204618
sg11
I4941
ssg12
(dp850
g14
I33
sg15
I24
sg16
I1846
sg17
I775
sg18
I7275
sg19
I27461
sg20
I521
sg21
I427
sg22
I184
sg23
I5
sg24
I12713
sg25
I134942
sg26
I32
sg27
I28473
ssg28
(dp851
g23
I214186
sg22
I184
sg15
I24
sg21
I427
sssS'Human,SEQC,P,ILM_BGI_B'
p852
(dp853
g3
(dp854
g5
I2123
sg6
I274875
ssg7
(dp855
g9
I7434
sg10
I262112
sg11
I7452
ssg12
(dp856
g14
I44
sg15
I22
sg16
I2416
sg17
I1045
sg18
I9266
sg19
I32751
sg20
I637
sg21
I515
sg22
I242
sg23
I8
sg24
I16756
sg25
I176690
sg26
I39
sg27
I36419
ssg28
(dp857
g23
I276219
sg22
I242
sg15
I22
sg21
I515
sssS'Human,Roadmap,G,adipose'
p858
(dp859
g3
(dp860
g5
I0
sg6
I48520
ssg7
(dp861
g9
I1230
sg10
I45892
sg11
I1398
ssg12
(dp862
g14
I9
sg15
I5
sg16
I558
sg17
I215
sg18
I1438
sg19
I9608
sg20
I125
sg21
I157
sg22
I46
sg23
I5
sg24
I2767
sg25
I28767
sg26
I11
sg27
I4775
ssg28
(dp863
g23
I48312
sg22
I46
sg15
I5
sg21
I157
sssS'Human,SEQC,S,ILM_NYG_C'
p864
(dp865
g3
(dp866
g5
I1135
sg6
I89602
ssg7
(dp867
g9
I1790
sg10
I87036
sg11
I1911
ssg12
(dp868
g14
I26
sg15
I11
sg16
I898
sg17
I500
sg18
I3989
sg19
I17843
sg20
I221
sg21
I244
sg22
I112
sg23
I1
sg24
I5041
sg25
I49913
sg26
I18
sg27
I11856
ssg28
(dp869
g23
I90370
sg22
I112
sg15
I11
sg21
I244
sssS'Human,SEQC,S,ILM_NYG_A'
p870
(dp871
g3
(dp872
g5
I1009
sg6
I75847
ssg7
(dp873
g9
I1378
sg10
I74077
sg11
I1401
ssg12
(dp874
g14
I17
sg15
I10
sg16
I799
sg17
I382
sg18
I3375
sg19
I15063
sg20
I199
sg21
I214
sg22
I95
sg23
I1
sg24
I4259
sg25
I42271
sg26
I16
sg27
I10100
ssg28
(dp875
g23
I76537
sg22
I95
sg15
I10
sg21
I214
sssS'Human,SEQC,S,ILM_NYG_D'
p876
(dp877
g3
(dp878
g5
I1235
sg6
I102364
ssg7
(dp879
g9
I2133
sg10
I99181
sg11
I2285
ssg12
(dp880
g14
I29
sg15
I16
sg16
I1095
sg17
I527
sg18
I4667
sg19
I21739
sg20
I269
sg21
I280
sg22
I143
sg23
I4
sg24
I5863
sg25
I55660
sg26
I20
sg27
I13202
ssg28
(dp881
g23
I103160
sg22
I143
sg15
I16
sg21
I280
sssS'Human,Encode,S,HMEC'
p882
(dp883
g3
(dp884
g5
I232
sg6
I8528
ssg7
(dp885
g9
I220
sg10
I8190
sg11
I350
ssg12
(dp886
g14
I3
sg15
I4
sg16
I97
sg17
I54
sg18
I370
sg19
I2496
sg20
I27
sg21
I37
sg22
I14
sg23
I1
sg24
I459
sg25
I4232
sg26
I0
sg27
I964
ssg28
(dp887
g23
I8705
sg22
I14
sg15
I4
sg21
I37
sssS'Human,GEUV,P,TSI'
p888
(dp889
g3
(dp890
g5
I1829
sg6
I238094
ssg7
(dp891
g9
I6453
sg10
I228445
sg11
I5025
ssg12
(dp892
g14
I25
sg15
I17
sg16
I1423
sg17
I524
sg18
I4623
sg19
I20176
sg20
I510
sg21
I459
sg22
I177
sg23
I11
sg24
I13126
sg25
I168958
sg26
I28
sg27
I29796
ssg28
(dp893
g23
I239270
sg22
I177
sg15
I17
sg21
I459
sssS'Human,BrainDataSet,P,brain_prefrontal'
p894
(dp895
g3
(dp896
g5
I354
sg6
I11641
ssg7
(dp897
g9
I313
sg10
I11263
sg11
I419
ssg12
(dp898
g14
I0
sg15
I2
sg16
I124
sg17
I58
sg18
I578
sg19
I3009
sg20
I21
sg21
I39
sg22
I14
sg23
I1
sg24
I655
sg25
I6004
sg26
I2
sg27
I1468
ssg28
(dp899
g23
I11940
sg22
I14
sg15
I2
sg21
I39
sssS'Human,Roadmap,P,CD19_primary_cells'
p900
(dp901
g3
(dp902
g5
I847
sg6
I120352
ssg7
(dp903
g9
I4897
sg10
I112918
sg11
I3384
ssg12
(dp904
g14
I7
sg15
I6
sg16
I433
sg17
I189
sg18
I1463
sg19
I5580
sg20
I116
sg21
I100
sg22
I48
sg23
I0
sg24
I3902
sg25
I98927
sg26
I9
sg27
I10391
ssg28
(dp905
g23
I121045
sg22
I48
sg15
I6
sg21
I100
sssS'Human,CCLE,G,CCLE-UCEC'
p906
(dp907
g3
(dp908
g5
I0
sg6
I18975
ssg7
(dp909
g9
I525
sg10
I17831
sg11
I619
ssg12
(dp910
g14
I7
sg15
I3
sg16
I226
sg17
I103
sg18
I517
sg19
I4061
sg20
I36
sg21
I61
sg22
I18
sg23
I0
sg24
I972
sg25
I11165
sg26
I2
sg27
I1791
ssg28
(dp911
g23
I18893
sg22
I18
sg15
I3
sg21
I61
sssS'Human,Roadmap,G,kidney'
p912
(dp913
g3
(dp914
g5
I0
sg6
I6874
ssg7
(dp915
g9
I194
sg10
I6470
sg11
I210
ssg12
(dp916
g14
I1
sg15
I0
sg16
I131
sg17
I28
sg18
I274
sg19
I2845
sg20
I16
sg21
I22
sg22
I7
sg23
I0
sg24
I404
sg25
I2382
sg26
I2
sg27
I756
ssg28
(dp917
g23
I6845
sg22
I7
sg15
I0
sg21
I22
sssS'Human,CCLE,D,CCLE-KIRC'
p918
(dp919
g3
(dp920
g5
I294
sg6
I15833
ssg7
(dp921
g9
I1
sg10
I16126
sg11
I0
ssg12
(dp922
g14
I1
sg15
I2
sg16
I103
sg17
I59
sg18
I354
sg19
I1545
sg20
I39
sg21
I14
sg22
I3
sg23
I1
sg24
I803
sg25
I11234
sg26
I0
sg27
I1962
ssg28
(dp923
g23
I16108
sg22
I3
sg15
I2
sg21
I14
sssS'Human,SEQC,G,ILM_NYG_D'
p924
(dp925
g3
(dp926
g5
I0
sg6
I93328
ssg7
(dp927
g9
I2015
sg10
I89240
sg11
I2073
ssg12
(dp928
g14
I28
sg15
I16
sg16
I1001
sg17
I484
sg18
I3576
sg19
I18645
sg20
I255
sg21
I239
sg22
I111
sg23
I1
sg24
I5627
sg25
I53119
sg26
I17
sg27
I10137
ssg28
(dp929
g23
I92962
sg22
I111
sg15
I16
sg21
I239
sssS'Human,CCLE,G,CCLE-COAD'
p930
(dp931
g3
(dp932
g5
I0
sg6
I88905
ssg7
(dp933
g9
I3613
sg10
I80827
sg11
I4465
ssg12
(dp934
g14
I32
sg15
I8
sg16
I763
sg17
I426
sg18
I2411
sg19
I12333
sg20
I233
sg21
I653
sg22
I219
sg23
I2
sg24
I5037
sg25
I57098
sg26
I18
sg27
I9623
ssg28
(dp935
g23
I88025
sg22
I219
sg15
I8
sg21
I653
sssS'Human,ABRF,D,ABRF-ILMN-M-AS'
p936
(dp937
g3
(dp938
g5
I79
sg6
I6241
ssg7
(dp939
g9
I0
sg10
I6320
sg11
I0
ssg12
(dp940
g14
I0
sg15
I0
sg16
I23
sg17
I11
sg18
I83
sg19
I505
sg20
I10
sg21
I5
sg22
I1
sg23
I0
sg24
I201
sg25
I4921
sg26
I0
sg27
I560
ssg28
(dp941
g23
I6314
sg22
I1
sg15
I0
sg21
I5
sssS'Human,SEQC,G,ILM_NYG_B'
p942
(dp943
g3
(dp944
g5
I0
sg6
I89105
ssg7
(dp945
g9
I1931
sg10
I85097
sg11
I2077
ssg12
(dp946
g14
I27
sg15
I12
sg16
I1015
sg17
I490
sg18
I3440
sg19
I18923
sg20
I226
sg21
I231
sg22
I103
sg23
I2
sg24
I5219
sg25
I49720
sg26
I18
sg27
I9611
ssg28
(dp947
g23
I88759
sg22
I103
sg15
I12
sg21
I231
sssS'Human,ABRF,D,ABRF-ILMN-M-AH'
p948
(dp949
g3
(dp950
g5
I85
sg6
I6758
ssg7
(dp951
g9
I0
sg10
I6843
sg11
I0
ssg12
(dp952
g14
I0
sg15
I0
sg16
I20
sg17
I15
sg18
I89
sg19
I529
sg20
I11
sg21
I2
sg22
I2
sg23
I0
sg24
I273
sg25
I5325
sg26
I0
sg27
I577
ssg28
(dp953
g23
I6839
sg22
I2
sg15
I0
sg21
I2
sssS'Human,GEUV,D,YRI'
p954
(dp955
g3
(dp956
g5
I429
sg6
I34613
ssg7
(dp957
g9
I1
sg10
I35041
sg11
I0
ssg12
(dp958
g14
I4
sg15
I4
sg16
I176
sg17
I104
sg18
I648
sg19
I2870
sg20
I78
sg21
I31
sg22
I14
sg23
I0
sg24
I1691
sg25
I25033
sg26
I0
sg27
I4379
ssg28
(dp959
g23
I34993
sg22
I14
sg15
I4
sg21
I31
sssS'Human,Roadmap,S,CD14_primary_cells'
p960
(dp961
g3
(dp962
g5
I743
sg6
I93447
ssg7
(dp963
g9
I3767
sg10
I87298
sg11
I3125
ssg12
(dp964
g14
I7
sg15
I6
sg16
I342
sg17
I119
sg18
I1104
sg19
I5429
sg20
I74
sg21
I76
sg22
I29
sg23
I1
sg24
I2543
sg25
I78005
sg26
I5
sg27
I6425
ssg28
(dp965
g23
I94079
sg22
I29
sg15
I6
sg21
I76
sssS'Human,Encode,S,CD20+'
p966
(dp967
g3
(dp968
g5
I1007
sg6
I125156
ssg7
(dp969
g9
I3752
sg10
I119299
sg11
I3112
ssg12
(dp970
g14
I9
sg15
I9
sg16
I507
sg17
I277
sg18
I2034
sg19
I7787
sg20
I199
sg21
I175
sg22
I80
sg23
I2
sg24
I4335
sg25
I99176
sg26
I13
sg27
I11533
ssg28
(dp971
g23
I125899
sg22
I80
sg15
I9
sg21
I175
sssS'Human,Encode,P,HCH'
p972
(dp973
g3
(dp974
g5
I871
sg6
I104951
ssg7
(dp975
g9
I5499
sg10
I96529
sg11
I3794
ssg12
(dp976
g14
I9
sg15
I5
sg16
I407
sg17
I163
sg18
I1261
sg19
I6353
sg20
I122
sg21
I88
sg22
I34
sg23
I0
sg24
I4869
sg25
I82000
sg26
I8
sg27
I10472
ssg28
(dp977
g23
I105695
sg22
I34
sg15
I5
sg21
I88
sssS'Human,Encode,G,NHEM.f_M2'
p978
(dp979
g3
(dp980
g5
I0
sg6
I42231
ssg7
(dp981
g9
I2371
sg10
I38305
sg11
I1555
ssg12
(dp982
g14
I9
sg15
I3
sg16
I275
sg17
I80
sg18
I645
sg19
I5189
sg20
I30
sg21
I39
sg22
I14
sg23
I1
sg24
I1701
sg25
I31081
sg26
I3
sg27
I3149
ssg28
(dp983
g23
I42175
sg22
I14
sg15
I3
sg21
I39
sssS'Human,Roadmap,P,adipose'
p984
(dp985
g3
(dp986
g5
I869
sg6
I52889
ssg7
(dp987
g9
I1372
sg10
I50874
sg11
I1512
ssg12
(dp988
g14
I7
sg15
I5
sg16
I582
sg17
I223
sg18
I1822
sg19
I10423
sg20
I137
sg21
I164
sg22
I50
sg23
I4
sg24
I2941
sg25
I31052
sg26
I11
sg27
I6302
ssg28
(dp989
g23
I53539
sg22
I50
sg15
I5
sg21
I164
sssS'Human,GEUV,S,FIN'
p990
(dp991
g3
(dp992
g5
I1679
sg6
I191729
ssg7
(dp993
g9
I5270
sg10
I182423
sg11
I5715
ssg12
(dp994
g14
I26
sg15
I18
sg16
I1313
sg17
I562
sg18
I4623
sg19
I23134
sg20
I412
sg21
I1185
sg22
I403
sg23
I69
sg24
I9526
sg25
I128817
sg26
I23
sg27
I23224
ssg28
(dp995
g23
I191802
sg22
I403
sg15
I18
sg21
I1185
sssS'Human,Roadmap,G,heart_right_ventricle'
p996
(dp997
g3
(dp998
g5
I0
sg6
I36913
ssg7
(dp999
g9
I865
sg10
I35210
sg11
I838
ssg12
(dp1000
g14
I7
sg15
I5
sg16
I371
sg17
I140
sg18
I890
sg19
I5354
sg20
I56
sg21
I80
sg22
I31
sg23
I0
sg24
I1870
sg25
I24452
sg26
I5
sg27
I3621
ssg28
(dp1001
g23
I36797
sg22
I31
sg15
I5
sg21
I80
sssS'Human,CCLE,D,CCLE-DLBC'
p1002
(dp1003
g3
(dp1004
g5
I586
sg6
I33728
ssg7
(dp1005
g9
I2
sg10
I34312
sg11
I0
ssg12
(dp1006
g14
I3
sg15
I2
sg16
I177
sg17
I78
sg18
I583
sg19
I2038
sg20
I65
sg21
I28
sg22
I10
sg23
I0
sg24
I1786
sg25
I25394
sg26
I1
sg27
I4140
ssg28
(dp1007
g23
I34274
sg22
I10
sg15
I2
sg21
I28
sssS'Human,ABRF,P,ABRF-ILMN-L-B'
p1008
(dp1009
g3
(dp1010
g5
I1035
sg6
I123730
ssg7
(dp1011
g9
I4905
sg10
I116023
sg11
I3837
ssg12
(dp1012
g14
I10
sg15
I7
sg16
I454
sg17
I168
sg18
I1734
sg19
I7094
sg20
I105
sg21
I142
sg22
I58
sg23
I1
sg24
I4398
sg25
I100149
sg26
I9
sg27
I10396
ssg28
(dp1013
g23
I124558
sg22
I58
sg15
I7
sg21
I142
sssS'Human,Encode,P,HVMF'
p1014
(dp1015
g3
(dp1016
g5
I704
sg6
I67076
ssg7
(dp1017
g9
I2614
sg10
I63163
sg11
I2003
ssg12
(dp1018
g14
I10
sg15
I4
sg16
I326
sg17
I101
sg18
I961
sg19
I6145
sg20
I70
sg21
I66
sg22
I26
sg23
I0
sg24
I2724
sg25
I50999
sg26
I7
sg27
I6315
ssg28
(dp1019
g23
I67684
sg22
I26
sg15
I4
sg21
I66
sssS'Human,ABRF,P,ABRF-ILMN-L-A'
p1020
(dp1021
g3
(dp1022
g5
I879
sg6
I101745
ssg7
(dp1023
g9
I2715
sg10
I97554
sg11
I2355
ssg12
(dp1024
g14
I10
sg15
I4
sg16
I374
sg17
I148
sg18
I1290
sg19
I5224
sg20
I122
sg21
I69
sg22
I34
sg23
I0
sg24
I4275
sg25
I80812
sg26
I6
sg27
I10231
ssg28
(dp1025
g23
I102517
sg22
I34
sg15
I4
sg21
I69
sssS'Human,HumanBodyMap,P,lymph_node'
p1026
(dp1027
g3
(dp1028
g5
I306
sg6
I7276
ssg7
(dp1029
g9
I188
sg10
I7080
sg11
I314
ssg12
(dp1030
g14
I1
sg15
I1
sg16
I118
sg17
I37
sg18
I323
sg19
I2984
sg20
I19
sg21
I74
sg22
I33
sg23
I2
sg24
I344
sg25
I2783
sg26
I2
sg27
I849
ssg28
(dp1031
g23
I7474
sg22
I33
sg15
I1
sg21
I74
sssS'Human,Encode,D,HPC-PL'
p1032
(dp1033
g3
(dp1034
g5
I213
sg6
I7205
ssg7
(dp1035
g9
I0
sg10
I7418
sg11
I0
ssg12
(dp1036
g14
I0
sg15
I1
sg16
I33
sg17
I12
sg18
I97
sg19
I769
sg20
I13
sg21
I3
sg22
I3
sg23
I0
sg24
I236
sg25
I5596
sg26
I0
sg27
I652
ssg28
(dp1037
g23
I7411
sg22
I3
sg15
I1
sg21
I3
sssS'Human,GEUV,P,YRI'
p1038
(dp1039
g3
(dp1040
g5
I1822
sg6
I240624
ssg7
(dp1041
g9
I6527
sg10
I230915
sg11
I5004
ssg12
(dp1042
g14
I25
sg15
I14
sg16
I1392
sg17
I543
sg18
I4574
sg19
I19944
sg20
I518
sg21
I375
sg22
I154
sg23
I9
sg24
I13146
sg25
I171519
sg26
I28
sg27
I30132
ssg28
(dp1043
g23
I241903
sg22
I154
sg15
I14
sg21
I375
sssS'Human,Encode,S,HSMM'
p1044
(dp1045
g3
(dp1046
g5
I441
sg6
I23880
ssg7
(dp1047
g9
I636
sg10
I23036
sg11
I649
ssg12
(dp1048
g14
I4
sg15
I5
sg16
I264
sg17
I107
sg18
I838
sg19
I5240
sg20
I49
sg21
I66
sg22
I25
sg23
I1
sg24
I1441
sg25
I13338
sg26
I7
sg27
I2923
ssg28
(dp1049
g23
I24225
sg22
I25
sg15
I5
sg21
I66
sssS'Human,Roadmap,P,H1_BMP4_derived_mesendoderm_cultured_cells'
p1050
(dp1051
g3
(dp1052
g5
I549
sg6
I43723
ssg7
(dp1053
g9
I1073
sg10
I42372
sg11
I827
ssg12
(dp1054
g14
I7
sg15
I3
sg16
I407
sg17
I104
sg18
I1044
sg19
I5781
sg20
I68
sg21
I43
sg22
I23
sg23
I0
sg24
I2251
sg25
I29737
sg26
I4
sg27
I4784
ssg28
(dp1055
g23
I44203
sg22
I23
sg15
I3
sg21
I43
sssS'Human,Roadmap,S,H1_derived_mesenchymal_stem_cells'
p1056
(dp1057
g3
(dp1058
g5
I633
sg6
I42829
ssg7
(dp1059
g9
I1029
sg10
I41618
sg11
I815
ssg12
(dp1060
g14
I7
sg15
I3
sg16
I387
sg17
I159
sg18
I1148
sg19
I7072
sg20
I108
sg21
I74
sg22
I32
sg23
I0
sg24
I2316
sg25
I27307
sg26
I5
sg27
I4828
ssg28
(dp1061
g23
I43353
sg22
I32
sg15
I3
sg21
I74
sssS'Human,CCLE,P,CCLE-MM'
p1062
(dp1063
g3
(dp1064
g5
I726
sg6
I65070
ssg7
(dp1065
g9
I1604
sg10
I62937
sg11
I1255
ssg12
(dp1066
g14
I12
sg15
I9
sg16
I539
sg17
I259
sg18
I2205
sg19
I9883
sg20
I157
sg21
I132
sg22
I43
sg23
I0
sg24
I3387
sg25
I40903
sg26
I13
sg27
I8211
ssg28
(dp1067
g23
I65612
sg22
I43
sg15
I9
sg21
I132
sssS'Human,CCLE,D,CCLE-PRAD'
p1068
(dp1069
g3
(dp1070
g5
I185
sg6
I8313
ssg7
(dp1071
g9
I0
sg10
I8498
sg11
I0
ssg12
(dp1072
g14
I1
sg15
I0
sg16
I78
sg17
I29
sg18
I198
sg19
I1024
sg20
I25
sg21
I14
sg22
I1
sg23
I0
sg24
I462
sg25
I5528
sg26
I0
sg27
I1134
ssg28
(dp1073
g23
I8483
sg22
I1
sg15
I0
sg21
I14
sssS'Human,CCLE,D,CCLE-OV'
p1074
(dp1075
g3
(dp1076
g5
I492
sg6
I29196
ssg7
(dp1077
g9
I1
sg10
I29687
sg11
I0
ssg12
(dp1078
g14
I3
sg15
I2
sg16
I165
sg17
I80
sg18
I539
sg19
I2155
sg20
I73
sg21
I30
sg22
I6
sg23
I0
sg24
I1523
sg25
I21482
sg26
I2
sg27
I3620
ssg28
(dp1079
g23
I29650
sg22
I6
sg15
I2
sg21
I30
sssS'Human,CCLE,D,CCLE-PAAD'
p1080
(dp1081
g3
(dp1082
g5
I517
sg6
I30526
ssg7
(dp1083
g9
I2
sg10
I31041
sg11
I0
ssg12
(dp1084
g14
I1
sg15
I2
sg16
I159
sg17
I77
sg18
I503
sg19
I2003
sg20
I55
sg21
I27
sg22
I6
sg23
I0
sg24
I1615
sg25
I22901
sg26
I0
sg27
I3686
ssg28
(dp1085
g23
I31008
sg22
I6
sg15
I2
sg21
I27
sssS'Human,Encode,D,SK-N-SH'
p1086
(dp1087
g3
(dp1088
g5
I395
sg6
I23344
ssg7
(dp1089
g9
I0
sg10
I23739
sg11
I0
ssg12
(dp1090
g14
I4
sg15
I2
sg16
I112
sg17
I63
sg18
I346
sg19
I1241
sg20
I72
sg21
I16
sg22
I5
sg23
I0
sg24
I1299
sg25
I17599
sg26
I0
sg27
I2974
ssg28
(dp1091
g23
I23716
sg22
I5
sg15
I2
sg21
I16
sssS'Human,HumanBodyMap,P,16_tissues'
p1092
(dp1093
g3
(dp1094
g5
I755
sg6
I44299
ssg7
(dp1095
g9
I6574
sg10
I33084
sg11
I5396
ssg12
(dp1096
g14
I4
sg15
I2
sg16
I355
sg17
I121
sg18
I1221
sg19
I7564
sg20
I50
sg21
I195
sg22
I85
sg23
I6
sg24
I2027
sg25
I28427
sg26
I3
sg27
I4965
ssg28
(dp1097
g23
I44772
sg22
I85
sg15
I2
sg21
I195
sssS'Human,CCLE,P,CCLE-STAD'
p1098
(dp1099
g3
(dp1100
g5
I718
sg6
I71106
ssg7
(dp1101
g9
I1549
sg10
I69231
sg11
I1044
ssg12
(dp1102
g14
I14
sg15
I7
sg16
I563
sg17
I276
sg18
I2034
sg19
I9955
sg20
I164
sg21
I111
sg22
I39
sg23
I0
sg24
I3620
sg25
I46527
sg26
I13
sg27
I8460
ssg28
(dp1103
g23
I71667
sg22
I39
sg15
I7
sg21
I111
sssS'Human,Encode,G,hMNC-PB'
p1104
(dp1105
g3
(dp1106
g5
I0
sg6
I70135
ssg7
(dp1107
g9
I3912
sg10
I63396
sg11
I2827
ssg12
(dp1108
g14
I13
sg15
I4
sg16
I195
sg17
I98
sg18
I746
sg19
I3309
sg20
I69
sg21
I59
sg22
I43
sg23
I2
sg24
I1834
sg25
I60296
sg26
I5
sg27
I3454
ssg28
(dp1109
g23
I70029
sg22
I43
sg15
I4
sg21
I59
sssS'Human,CCLE,G,CCLE-LGG'
p1110
(dp1111
g3
(dp1112
g5
I0
sg6
I127387
ssg7
(dp1113
g9
I4526
sg10
I118904
sg11
I3957
ssg12
(dp1114
g14
I31
sg15
I9
sg16
I828
sg17
I468
sg18
I3093
sg19
I13961
sg20
I240
sg21
I345
sg22
I146
sg23
I3
sg24
I6466
sg25
I89506
sg26
I16
sg27
I12203
ssg28
(dp1115
g23
I126887
sg22
I146
sg15
I9
sg21
I345
sssS'Human,Encode,P,K562'
p1116
(dp1117
g3
(dp1118
g5
I1270
sg6
I212936
ssg7
(dp1119
g9
I6878
sg10
I202640
sg11
I4688
ssg12
(dp1120
g14
I11
sg15
I10
sg16
I661
sg17
I312
sg18
I2384
sg19
I6620
sg20
I323
sg21
I155
sg22
I61
sg23
I2
sg24
I10168
sg25
I170192
sg26
I9
sg27
I23266
ssg28
(dp1121
g23
I213980
sg22
I61
sg15
I10
sg21
I155
sssS'Human,Encode,G,HPIEpC'
p1122
(dp1123
g3
(dp1124
g5
I0
sg6
I35522
ssg7
(dp1125
g9
I1652
sg10
I32739
sg11
I1131
ssg12
(dp1126
g14
I8
sg15
I5
sg16
I184
sg17
I77
sg18
I586
sg19
I2852
sg20
I55
sg21
I31
sg22
I17
sg23
I0
sg24
I1568
sg25
I27211
sg26
I3
sg27
I2910
ssg28
(dp1127
g23
I35469
sg22
I17
sg15
I5
sg21
I31
sssS'Human,Encode,S,HeLa-S3'
p1128
(dp1129
g3
(dp1130
g5
I1141
sg6
I141868
ssg7
(dp1131
g9
I4468
sg10
I135049
sg11
I3492
ssg12
(dp1132
g14
I12
sg15
I8
sg16
I757
sg17
I351
sg18
I2517
sg19
I10604
sg20
I285
sg21
I168
sg22
I79
sg23
I1
sg24
I6533
sg25
I105561
sg26
I12
sg27
I16090
ssg28
(dp1133
g23
I142754
sg22
I79
sg15
I8
sg21
I168
sssS'Human,SEQC,P,ILM_NYG_A'
p1134
(dp1135
g3
(dp1136
g5
I1022
sg6
I83362
ssg7
(dp1137
g9
I1541
sg10
I81421
sg11
I1422
ssg12
(dp1138
g14
I16
sg15
I10
sg16
I817
sg17
I387
sg18
I3502
sg19
I14230
sg20
I229
sg21
I200
sg22
I87
sg23
I2
sg24
I4920
sg25
I48675
sg26
I19
sg27
I11241
ssg28
(dp1139
g23
I84087
sg22
I87
sg15
I10
sg21
I200
sssS'Human,SEQC,P,ILM_NYG_C'
p1140
(dp1141
g3
(dp1142
g5
I1160
sg6
I102793
ssg7
(dp1143
g9
I2166
sg10
I99659
sg11
I2128
ssg12
(dp1144
g14
I28
sg15
I10
sg16
I957
sg17
I533
sg18
I4320
sg19
I16794
sg20
I265
sg21
I231
sg22
I108
sg23
I1
sg24
I6107
sg25
I60546
sg26
I22
sg27
I13957
ssg28
(dp1145
g23
I103604
sg22
I108
sg15
I10
sg21
I231
sssS'Human,Roadmap,D,H1_BMP4_derived_mesendoderm_cultured_cells'
p1146
(dp1147
g3
(dp1148
g5
I127
sg6
I6169
ssg7
(dp1149
g9
I0
sg10
I6296
sg11
I0
ssg12
(dp1150
g14
I0
sg15
I0
sg16
I56
sg17
I18
sg18
I124
sg19
I884
sg20
I10
sg21
I4
sg22
I2
sg23
I0
sg24
I277
sg25
I4213
sg26
I0
sg27
I707
ssg28
(dp1151
g23
I6290
sg22
I2
sg15
I0
sg21
I4
sssS'Human,Roadmap,S,liver'
p1152
(dp1153
g3
(dp1154
g5
I549
sg6
I20892
ssg7
(dp1155
g9
I582
sg10
I20228
sg11
I631
ssg12
(dp1156
g14
I4
sg15
I3
sg16
I374
sg17
I68
sg18
I852
sg19
I8034
sg20
I88
sg21
I93
sg22
I43
sg23
I1
sg24
I1326
sg25
I8115
sg26
I6
sg27
I2400
ssg28
(dp1157
g23
I21302
sg22
I43
sg15
I3
sg21
I93
sssS'Human,Roadmap,S,spleen'
p1158
(dp1159
g3
(dp1160
g5
I1296
sg6
I133794
ssg7
(dp1161
g9
I2013
sg10
I131108
sg11
I1969
ssg12
(dp1162
g14
I14
sg15
I9
sg16
I857
sg17
I306
sg18
I3002
sg19
I13168
sg20
I205
sg21
I236
sg22
I105
sg23
I3
sg24
I5999
sg25
I96842
sg26
I18
sg27
I14275
ssg28
(dp1163
g23
I134740
sg22
I105
sg15
I9
sg21
I236
sssS'Human,CCLE,P,CCLE-LUSC'
p1164
(dp1165
g3
(dp1166
g5
I1316
sg6
I176868
ssg7
(dp1167
g9
I4293
sg10
I170619
sg11
I3272
ssg12
(dp1168
g14
I29
sg15
I13
sg16
I1238
sg17
I662
sg18
I4970
sg19
I19259
sg20
I406
sg21
I262
sg22
I119
sg23
I3
sg24
I9662
sg25
I119399
sg26
I19
sg27
I22061
ssg28
(dp1169
g23
I177790
sg22
I119
sg15
I13
sg21
I262
sssS'Human,Encode,S,HPIEpC'
p1170
(dp1171
g3
(dp1172
g5
I433
sg6
I36729
ssg7
(dp1173
g9
I1562
sg10
I34394
sg11
I1206
ssg12
(dp1174
g14
I7
sg15
I6
sg16
I191
sg17
I82
sg18
I608
sg19
I3158
sg20
I51
sg21
I45
sg22
I26
sg23
I0
sg24
I1577
sg25
I27905
sg26
I4
sg27
I3487
ssg28
(dp1175
g23
I37085
sg22
I26
sg15
I6
sg21
I45
sssS'Human,Encode,D,MCF-7'
p1176
(dp1177
g3
(dp1178
g5
I385
sg6
I23871
ssg7
(dp1179
g9
I0
sg10
I24256
sg11
I0
ssg12
(dp1180
g14
I1
sg15
I1
sg16
I105
sg17
I43
sg18
I318
sg19
I1198
sg20
I59
sg21
I16
sg22
I5
sg23
I0
sg24
I1228
sg25
I18592
sg26
I0
sg27
I2686
ssg28
(dp1181
g23
I24234
sg22
I5
sg15
I1
sg21
I16
sssS'Human,Roadmap,S,placenta_day113_F'
p1182
(dp1183
g3
(dp1184
g5
I507
sg6
I56030
ssg7
(dp1185
g9
I1408
sg10
I54015
sg11
I1114
ssg12
(dp1186
g14
I3
sg15
I5
sg16
I275
sg17
I104
sg18
I810
sg19
I4564
sg20
I39
sg21
I49
sg22
I16
sg23
I0
sg24
I1829
sg25
I44106
sg26
I4
sg27
I4718
ssg28
(dp1187
g23
I56467
sg22
I16
sg15
I5
sg21
I49
sssS'Human,Roadmap,S,heart_right_ventricle'
p1188
(dp1189
g3
(dp1190
g5
I603
sg6
I38201
ssg7
(dp1191
g9
I858
sg10
I37105
sg11
I841
ssg12
(dp1192
g14
I6
sg15
I5
sg16
I381
sg17
I148
sg18
I1095
sg19
I5850
sg20
I63
sg21
I84
sg22
I37
sg23
I1
sg24
I1864
sg25
I24736
sg26
I5
sg27
I4499
ssg28
(dp1193
g23
I38678
sg22
I37
sg15
I5
sg21
I84
sssS'Human,Roadmap,P,thymus'
p1194
(dp1195
g3
(dp1196
g5
I935
sg6
I92333
ssg7
(dp1197
g9
I1388
sg10
I90629
sg11
I1251
ssg12
(dp1198
g14
I12
sg15
I8
sg16
I693
sg17
I254
sg18
I2388
sg19
I10070
sg20
I204
sg21
I143
sg22
I65
sg23
I1
sg24
I4666
sg25
I63748
sg26
I11
sg27
I10958
ssg28
(dp1199
g23
I93052
sg22
I65
sg15
I8
sg21
I143
sssS'Human,Encode,S,HAoAF'
p1200
(dp1201
g3
(dp1202
g5
I522
sg6
I46889
ssg7
(dp1203
g9
I2447
sg10
I43386
sg11
I1578
ssg12
(dp1204
g14
I6
sg15
I2
sg16
I212
sg17
I99
sg18
I802
sg19
I4173
sg20
I55
sg21
I54
sg22
I28
sg23
I0
sg24
I2198
sg25
I34969
sg26
I3
sg27
I4797
ssg28
(dp1205
g23
I47327
sg22
I28
sg15
I2
sg21
I54
sssS'Human,Roadmap,D,H1_derived_neuronal_progenitor_cultured_cells'
p1206
(dp1207
g3
(dp1208
g5
I176
sg6
I10366
ssg7
(dp1209
g9
I0
sg10
I10542
sg11
I0
ssg12
(dp1210
g14
I1
sg15
I2
sg16
I75
sg17
I30
sg18
I220
sg19
I981
sg20
I22
sg21
I4
sg22
I0
sg23
I0
sg24
I612
sg25
I7204
sg26
I0
sg27
I1389
ssg28
(dp1211
g23
I10536
sg22
I0
sg15
I2
sg21
I4
sssS'Human,ABRF,G,ABRF-ILMN-R-B'
p1212
(dp1213
g3
(dp1214
g5
I0
sg6
I79468
ssg7
(dp1215
g9
I2248
sg10
I75403
sg11
I1817
ssg12
(dp1216
g14
I12
sg15
I7
sg16
I361
sg17
I159
sg18
I1163
sg19
I5886
sg20
I84
sg21
I87
sg22
I40
sg23
I1
sg24
I2954
sg25
I62806
sg26
I7
sg27
I5870
ssg28
(dp1217
g23
I79334
sg22
I40
sg15
I7
sg21
I87
sssS'Human,ABRF,G,ABRF-ILMN-R-A'
p1218
(dp1219
g3
(dp1220
g5
I0
sg6
I63929
ssg7
(dp1221
g9
I1605
sg10
I61076
sg11
I1248
ssg12
(dp1222
g14
I5
sg15
I1
sg16
I251
sg17
I105
sg18
I864
sg19
I3853
sg20
I72
sg21
I56
sg22
I26
sg23
I1
sg24
I2528
sg25
I50955
sg26
I2
sg27
I5195
ssg28
(dp1223
g23
I63846
sg22
I26
sg15
I1
sg21
I56
sssS'Human,HumanBodyMap,P,colon'
p1224
(dp1225
g3
(dp1226
g5
I316
sg6
I6228
ssg7
(dp1227
g9
I196
sg10
I6130
sg11
I218
ssg12
(dp1228
g14
I3
sg15
I0
sg16
I117
sg17
I21
sg18
I360
sg19
I3058
sg20
I14
sg21
I31
sg22
I9
sg23
I1
sg24
I358
sg25
I1755
sg26
I1
sg27
I809
ssg28
(dp1229
g23
I6504
sg22
I9
sg15
I0
sg21
I31
sssS'Human,Encode,G,HCH'
p1230
(dp1231
g3
(dp1232
g5
I0
sg6
I92397
ssg7
(dp1233
g9
I5337
sg10
I83843
sg11
I3217
ssg12
(dp1234
g14
I15
sg15
I5
sg16
I382
sg17
I151
sg18
I1055
sg19
I5871
sg20
I123
sg21
I66
sg22
I30
sg23
I0
sg24
I4389
sg25
I72445
sg26
I6
sg27
I7831
ssg28
(dp1235
g23
I92296
sg22
I30
sg15
I5
sg21
I66
sssS'Human,GEUV,G,CEU'
p1236
(dp1237
g3
(dp1238
g5
I0
sg6
I168830
ssg7
(dp1239
g9
I4910
sg10
I159211
sg11
I4709
ssg12
(dp1240
g14
I30
sg15
I20
sg16
I1254
sg17
I513
sg18
I3801
sg19
I21351
sg20
I386
sg21
I480
sg22
I210
sg23
I24
sg24
I9392
sg25
I113387
sg26
I20
sg27
I17893
ssg28
(dp1241
g23
I168120
sg22
I210
sg15
I20
sg21
I480
sssS'Human,ABRF,P,ABRF-ILMN-RNA-A'
p1242
(dp1243
g3
(dp1244
g5
I311
sg6
I11486
ssg7
(dp1245
g9
I549
sg10
I10640
sg11
I608
ssg12
(dp1246
g14
I3
sg15
I1
sg16
I119
sg17
I40
sg18
I470
sg19
I2185
sg20
I37
sg21
I31
sg22
I16
sg23
I0
sg24
I608
sg25
I6861
sg26
I1
sg27
I1418
ssg28
(dp1247
g23
I11749
sg22
I16
sg15
I1
sg21
I31
sssS'Human,ABRF,P,ABRF-ILMN-RNA-C'
p1248
(dp1249
g3
(dp1250
g5
I376
sg6
I12819
ssg7
(dp1251
g9
I424
sg10
I12336
sg11
I435
ssg12
(dp1252
g14
I3
sg15
I3
sg16
I119
sg17
I51
sg18
I554
sg19
I2837
sg20
I29
sg21
I37
sg22
I16
sg23
I0
sg24
I703
sg25
I7263
sg26
I2
sg27
I1567
ssg28
(dp1253
g23
I13139
sg22
I16
sg15
I3
sg21
I37
sssS'Human,ABRF,P,ABRF-ILMN-RNA-B'
p1254
(dp1255
g3
(dp1256
g5
I410
sg6
I16666
ssg7
(dp1257
g9
I700
sg10
I15707
sg11
I669
ssg12
(dp1258
g14
I2
sg15
I3
sg16
I195
sg17
I76
sg18
I725
sg19
I3757
sg20
I27
sg21
I46
sg22
I18
sg23
I0
sg24
I914
sg25
I9310
sg26
I1
sg27
I1978
ssg28
(dp1259
g23
I17009
sg22
I18
sg15
I3
sg21
I46
sssS'Human,ABRF,P,ABRF-ILMN-RNA-D'
p1260
(dp1261
g3
(dp1262
g5
I461
sg6
I16820
ssg7
(dp1263
g9
I547
sg10
I16126
sg11
I608
ssg12
(dp1264
g14
I3
sg15
I2
sg16
I185
sg17
I58
sg18
I735
sg19
I3783
sg20
I32
sg21
I46
sg22
I17
sg23
I1
sg24
I911
sg25
I9407
sg26
I3
sg27
I2081
ssg28
(dp1265
g23
I17216
sg22
I17
sg15
I2
sg21
I46
sssS'Human,Roadmap,D,CD19_primary_cells'
p1266
(dp1267
g3
(dp1268
g5
I278
sg6
I15048
ssg7
(dp1269
g9
I2
sg10
I15322
sg11
I2
ssg12
(dp1270
g14
I0
sg15
I1
sg16
I58
sg17
I25
sg18
I151
sg19
I705
sg20
I14
sg21
I8
sg22
I2
sg23
I0
sg24
I551
sg25
I12426
sg26
I0
sg27
I1382
ssg28
(dp1271
g23
I15315
sg22
I2
sg15
I1
sg21
I8
sssS'Human,BrainDataSet,S,brain_prefrontal'
p1272
(dp1273
g3
(dp1274
g5
I353
sg6
I11026
ssg7
(dp1275
g9
I272
sg10
I10734
sg11
I373
ssg12
(dp1276
g14
I0
sg15
I2
sg16
I123
sg17
I58
sg18
I569
sg19
I3001
sg20
I21
sg21
I38
sg22
I14
sg23
I1
sg24
I612
sg25
I5572
sg26
I2
sg27
I1347
ssg28
(dp1277
g23
I11325
sg22
I14
sg15
I2
sg21
I38
sssS'Human,Roadmap,G,heart_left_ventricle'
p1278
(dp1279
g3
(dp1280
g5
I0
sg6
I33475
ssg7
(dp1281
g9
I976
sg10
I31687
sg11
I812
ssg12
(dp1282
g14
I6
sg15
I5
sg16
I306
sg17
I123
sg18
I747
sg19
I4558
sg20
I47
sg21
I58
sg22
I26
sg23
I0
sg24
I1709
sg25
I22713
sg26
I3
sg27
I3153
ssg28
(dp1283
g23
I33386
sg22
I26
sg15
I5
sg21
I58
sssS'Human,ABRF,G,ABRF-ILMN-V-A'
p1284
(dp1285
g3
(dp1286
g5
I0
sg6
I54454
ssg7
(dp1287
g9
I1391
sg10
I51932
sg11
I1131
ssg12
(dp1288
g14
I7
sg15
I3
sg16
I226
sg17
I90
sg18
I780
sg19
I3729
sg20
I58
sg21
I46
sg22
I16
sg23
I0
sg24
I2058
sg25
I43004
sg26
I2
sg27
I4419
ssg28
(dp1289
g23
I54389
sg22
I16
sg15
I3
sg21
I46
sssS'Human,CCLE,S,CCLE-LCLL'
p1290
(dp1291
g3
(dp1292
g5
I1165
sg6
I146430
ssg7
(dp1293
g9
I4655
sg10
I133831
sg11
I9109
ssg12
(dp1294
g14
I25
sg15
I11
sg16
I992
sg17
I738
sg18
I4117
sg19
I17935
sg20
I342
sg21
I1338
sg22
I506
sg23
I14
sg24
I7928
sg25
I95892
sg26
I21
sg27
I17665
ssg28
(dp1295
g23
I145740
sg22
I506
sg15
I11
sg21
I1338
sssS'Human,Roadmap,S,heart_left_ventricle'
p1296
(dp1297
g3
(dp1298
g5
I523
sg6
I34567
ssg7
(dp1299
g9
I983
sg10
I33311
sg11
I796
ssg12
(dp1300
g14
I5
sg15
I5
sg16
I315
sg17
I128
sg18
I906
sg19
I4968
sg20
I57
sg21
I62
sg22
I36
sg23
I1
sg24
I1690
sg25
I23005
sg26
I3
sg27
I3887
ssg28
(dp1301
g23
I34987
sg22
I36
sg15
I5
sg21
I62
sssS'Human,Encode,D,hMSC-BM'
p1302
(dp1303
g3
(dp1304
g5
I348
sg6
I14311
ssg7
(dp1305
g9
I1
sg10
I14658
sg11
I0
ssg12
(dp1306
g14
I1
sg15
I1
sg16
I61
sg17
I26
sg18
I154
sg19
I1033
sg20
I24
sg21
I8
sg22
I0
sg23
I0
sg24
I663
sg25
I11259
sg26
I0
sg27
I1426
ssg28
(dp1307
g23
I14650
sg22
I0
sg15
I1
sg21
I8
sssS'Human,Encode,G,K562'
p1308
(dp1309
g3
(dp1310
g5
I0
sg6
I178198
ssg7
(dp1311
g9
I7020
sg10
I166740
sg11
I4438
ssg12
(dp1312
g14
I11
sg15
I10
sg16
I583
sg17
I288
sg18
I1951
sg19
I6140
sg20
I270
sg21
I162
sg22
I66
sg23
I2
sg24
I8255
sg25
I144093
sg26
I6
sg27
I16334
ssg28
(dp1313
g23
I177960
sg22
I66
sg15
I10
sg21
I162
sssS'Human,Roadmap,G,H1_derived_mesenchymal_stem_cells'
p1314
(dp1315
g3
(dp1316
g5
I0
sg6
I40825
ssg7
(dp1317
g9
I1084
sg10
I38764
sg11
I977
ssg12
(dp1318
g14
I9
sg15
I3
sg16
I376
sg17
I152
sg18
I956
sg19
I6575
sg20
I105
sg21
I74
sg22
I23
sg23
I0
sg24
I2380
sg25
I26373
sg26
I4
sg27
I3778
ssg28
(dp1319
g23
I40725
sg22
I23
sg15
I3
sg21
I74
sssS'Human,Encode,P,NHDF'
p1320
(dp1321
g3
(dp1322
g5
I813
sg6
I87066
ssg7
(dp1323
g9
I3690
sg10
I81583
sg11
I2606
ssg12
(dp1324
g14
I10
sg15
I4
sg16
I350
sg17
I154
sg18
I1134
sg19
I6033
sg20
I95
sg21
I75
sg22
I38
sg23
I1
sg24
I4232
sg25
I66644
sg26
I10
sg27
I9079
ssg28
(dp1325
g23
I87762
sg22
I38
sg15
I4
sg21
I75
sssS'Human,Roadmap,P,CD56_primary_cells'
p1326
(dp1327
g3
(dp1328
g5
I1008
sg6
I149686
ssg7
(dp1329
g9
I6582
sg10
I139787
sg11
I4325
ssg12
(dp1330
g14
I10
sg15
I4
sg16
I507
sg17
I186
sg18
I1547
sg19
I5866
sg20
I126
sg21
I79
sg22
I38
sg23
I0
sg24
I4818
sg25
I124645
sg26
I8
sg27
I12836
ssg28
(dp1331
g23
I150573
sg22
I38
sg15
I4
sg21
I79
sssS'Human,Encode,D,BJ'
p1332
(dp1333
g3
(dp1334
g5
I177
sg6
I9548
ssg7
(dp1335
g9
I0
sg10
I9725
sg11
I0
ssg12
(dp1336
g14
I1
sg15
I2
sg16
I66
sg17
I29
sg18
I165
sg19
I1034
sg20
I21
sg21
I3
sg22
I1
sg23
I0
sg24
I374
sg25
I7040
sg26
I0
sg27
I986
ssg28
(dp1337
g23
I9719
sg22
I1
sg15
I2
sg21
I3
sssS'Human,HumanBodyMap,G,16_tissues'
p1338
(dp1339
g3
(dp1340
g5
I0
sg6
I28941
ssg7
(dp1341
g9
I2907
sg10
I23771
sg11
I2263
ssg12
(dp1342
g14
I4
sg15
I2
sg16
I288
sg17
I103
sg18
I859
sg19
I6588
sg20
I39
sg21
I162
sg22
I71
sg23
I8
sg24
I1392
sg25
I16678
sg26
I2
sg27
I2722
ssg28
(dp1343
g23
I28706
sg22
I71
sg15
I2
sg21
I162
sssS'Human,ABRF,D,ABRF-ILMN-N-BR'
p1344
(dp1345
g3
(dp1346
g5
I73
sg6
I10855
ssg7
(dp1347
g9
I1
sg10
I10927
sg11
I0
ssg12
(dp1348
g14
I0
sg15
I0
sg16
I45
sg17
I19
sg18
I131
sg19
I780
sg20
I10
sg21
I2
sg22
I0
sg23
I0
sg24
I384
sg25
I8570
sg26
I1
sg27
I983
ssg28
(dp1349
g23
I10926
sg22
I0
sg15
I0
sg21
I2
sssS'Human,Encode,G,HMEpC'
p1350
(dp1351
g3
(dp1352
g5
I0
sg6
I16469
ssg7
(dp1353
g9
I988
sg10
I14846
sg11
I635
ssg12
(dp1354
g14
I8
sg15
I2
sg16
I85
sg17
I44
sg18
I280
sg19
I2099
sg20
I20
sg21
I19
sg22
I11
sg23
I0
sg24
I655
sg25
I11736
sg26
I2
sg27
I1503
ssg28
(dp1355
g23
I16437
sg22
I11
sg15
I2
sg21
I19
sssS'Human,CCLE,P,CCLE-SKCM'
p1356
(dp1357
g3
(dp1358
g5
I703
sg6
I59595
ssg7
(dp1359
g9
I1298
sg10
I57980
sg11
I1020
ssg12
(dp1360
g14
I8
sg15
I7
sg16
I512
sg17
I238
sg18
I1898
sg19
I9820
sg20
I133
sg21
I116
sg22
I45
sg23
I1
sg24
I2884
sg25
I37704
sg26
I8
sg27
I6887
ssg28
(dp1361
g23
I60130
sg22
I45
sg15
I7
sg21
I116
sssS'Human,CCLE,G,CCLE-LIHC'
p1362
(dp1363
g3
(dp1364
g5
I0
sg6
I58347
ssg7
(dp1365
g9
I1857
sg10
I54504
sg11
I1986
ssg12
(dp1366
g14
I16
sg15
I9
sg16
I569
sg17
I254
sg18
I1664
sg19
I9145
sg20
I140
sg21
I182
sg22
I85
sg23
I2
sg24
I3330
sg25
I36931
sg26
I11
sg27
I5973
ssg28
(dp1367
g23
I58071
sg22
I85
sg15
I9
sg21
I182
sssS'Human,Encode,G,HSMM'
p1368
(dp1369
g3
(dp1370
g5
I0
sg6
I22789
ssg7
(dp1371
g9
I627
sg10
I21391
sg11
I771
ssg12
(dp1372
g14
I5
sg15
I5
sg16
I260
sg17
I96
sg18
I718
sg19
I4900
sg20
I58
sg21
I66
sg22
I22
sg23
I0
sg24
I1506
sg25
I12859
sg26
I6
sg27
I2273
ssg28
(dp1373
g23
I22696
sg22
I22
sg15
I5
sg21
I66
sssS'Human,Encode,D,K562'
p1374
(dp1375
g3
(dp1376
g5
I524
sg6
I35930
ssg7
(dp1377
g9
I0
sg10
I36453
sg11
I1
ssg12
(dp1378
g14
I1
sg15
I2
sg16
I107
sg17
I55
sg18
I327
sg19
I1010
sg20
I52
sg21
I21
sg22
I7
sg23
I1
sg24
I1635
sg25
I29447
sg26
I0
sg27
I3785
ssg28
(dp1379
g23
I36424
sg22
I7
sg15
I2
sg21
I21
sssS'Human,HumanBodyMap,S,adrenal'
p1380
(dp1381
g3
(dp1382
g5
I340
sg6
I10455
ssg7
(dp1383
g9
I386
sg10
I9955
sg11
I454
ssg12
(dp1384
g14
I1
sg15
I1
sg16
I129
sg17
I38
sg18
I419
sg19
I3227
sg20
I25
sg21
I76
sg22
I28
sg23
I6
sg24
I415
sg25
I5251
sg26
I2
sg27
I1170
ssg28
(dp1385
g23
I10690
sg22
I28
sg15
I1
sg21
I76
sssS'Human,Encode,P,CD34+_Mobilized'
p1386
(dp1387
g3
(dp1388
g5
I870
sg6
I108496
ssg7
(dp1389
g9
I4310
sg10
I102348
sg11
I2708
ssg12
(dp1390
g14
I14
sg15
I3
sg16
I503
sg17
I161
sg18
I1545
sg19
I6968
sg20
I127
sg21
I86
sg22
I39
sg23
I1
sg24
I4340
sg25
I85290
sg26
I10
sg27
I10248
ssg28
(dp1391
g23
I109238
sg22
I39
sg15
I3
sg21
I86
sssS'Human,Encode,S,NHDF'
p1392
(dp1393
g3
(dp1394
g5
I778
sg6
I79657
ssg7
(dp1395
g9
I3346
sg10
I74801
sg11
I2288
ssg12
(dp1396
g14
I10
sg15
I4
sg16
I340
sg17
I149
sg18
I1108
sg19
I6007
sg20
I89
sg21
I78
sg22
I35
sg23
I1
sg24
I3736
sg25
I60746
sg26
I9
sg27
I8106
ssg28
(dp1397
g23
I80318
sg22
I35
sg15
I4
sg21
I78
sssS'Human,ABRF,D,ABRF-ILMN-L-A'
p1398
(dp1399
g3
(dp1400
g5
I58
sg6
I9333
ssg7
(dp1401
g9
I0
sg10
I9391
sg11
I0
ssg12
(dp1402
g14
I0
sg15
I0
sg16
I41
sg17
I21
sg18
I117
sg19
I650
sg20
I10
sg21
I6
sg22
I0
sg23
I0
sg24
I366
sg25
I7248
sg26
I0
sg27
I931
ssg28
(dp1403
g23
I9385
sg22
I0
sg15
I0
sg21
I6
sssS'Human,SEQC,G,ILM_AGR_B'
p1404
(dp1405
g3
(dp1406
g5
I0
sg6
I177431
ssg7
(dp1407
g9
I4193
sg10
I169664
sg11
I3574
ssg12
(dp1408
g14
I37
sg15
I20
sg16
I1704
sg17
I766
sg18
I5564
sg19
I28329
sg20
I390
sg21
I338
sg22
I166
sg23
I4
sg24
I10228
sg25
I111071
sg26
I23
sg27
I18684
ssg28
(dp1409
g23
I176907
sg22
I166
sg15
I20
sg21
I338
sssS'Human,SEQC,G,ILM_AGR_C'
p1410
(dp1411
g3
(dp1412
g5
I0
sg6
I164894
ssg7
(dp1413
g9
I3713
sg10
I158015
sg11
I3166
ssg12
(dp1414
g14
I34
sg15
I20
sg16
I1473
sg17
I693
sg18
I5036
sg19
I25328
sg20
I407
sg21
I323
sg22
I147
sg23
I2
sg24
I9558
sg25
I103947
sg26
I21
sg27
I17812
ssg28
(dp1415
g23
I164404
sg22
I147
sg15
I20
sg21
I323
sssS'Human,SEQC,G,ILM_AGR_A'
p1416
(dp1417
g3
(dp1418
g5
I0
sg6
I144747
ssg7
(dp1419
g9
I3026
sg10
I139260
sg11
I2461
ssg12
(dp1420
g14
I27
sg15
I16
sg16
I1305
sg17
I581
sg18
I4359
sg19
I21767
sg20
I360
sg21
I270
sg22
I135
sg23
I2
sg24
I8463
sg25
I91658
sg26
I20
sg27
I15712
ssg28
(dp1421
g23
I144326
sg22
I135
sg15
I16
sg21
I270
sssS'Human,SEQC,G,ILM_AGR_D'
p1422
(dp1423
g3
(dp1424
g5
I0
sg6
I176812
ssg7
(dp1425
g9
I4212
sg10
I168991
sg11
I3609
ssg12
(dp1426
g14
I41
sg15
I20
sg16
I1665
sg17
I771
sg18
I5535
sg19
I27885
sg20
I415
sg21
I348
sg22
I172
sg23
I3
sg24
I10260
sg25
I110702
sg26
I23
sg27
I18869
ssg28
(dp1427
g23
I176272
sg22
I172
sg15
I20
sg21
I348
sssS'Human,ABRF,S,ABRF-ILMN-M-AS'
p1428
(dp1429
g3
(dp1430
g5
I592
sg6
I53111
ssg7
(dp1431
g9
I1023
sg10
I51745
sg11
I935
ssg12
(dp1432
g14
I3
sg15
I4
sg16
I211
sg17
I85
sg18
I794
sg19
I3702
sg20
I62
sg21
I51
sg22
I25
sg23
I0
sg24
I1959
sg25
I41982
sg26
I3
sg27
I4809
ssg28
(dp1433
g23
I53623
sg22
I25
sg15
I4
sg21
I51
sssS'Human,CCLE,D,CCLE-STAD'
p1434
(dp1435
g3
(dp1436
g5
I435
sg6
I25692
ssg7
(dp1437
g9
I1
sg10
I26126
sg11
I0
ssg12
(dp1438
g14
I2
sg15
I1
sg16
I142
sg17
I71
sg18
I426
sg19
I1792
sg20
I49
sg21
I22
sg22
I6
sg23
I0
sg24
I1327
sg25
I19123
sg26
I1
sg27
I3154
ssg28
(dp1439
g23
I26098
sg22
I6
sg15
I1
sg21
I22
sssS'Human,CCLE,P,CCLE-PRAD'
p1440
(dp1441
g3
(dp1442
g5
I424
sg6
I27608
ssg7
(dp1443
g9
I582
sg10
I27018
sg11
I432
ssg12
(dp1444
g14
I9
sg15
I2
sg16
I313
sg17
I127
sg18
I1037
sg19
I5580
sg20
I76
sg21
I57
sg22
I18
sg23
I0
sg24
I1592
sg25
I15631
sg26
I6
sg27
I3562
ssg28
(dp1445
g23
I27955
sg22
I18
sg15
I2
sg21
I57
sssS'Human,CCLE,G,CCLE-MM'
p1446
(dp1447
g3
(dp1448
g5
I0
sg6
I67778
ssg7
(dp1449
g9
I2882
sg10
I62087
sg11
I2809
ssg12
(dp1450
g14
I17
sg15
I10
sg16
I612
sg17
I320
sg18
I2231
sg19
I10338
sg20
I178
sg21
I238
sg22
I98
sg23
I1
sg24
I4121
sg25
I41804
sg26
I14
sg27
I7748
ssg28
(dp1451
g23
I67432
sg22
I98
sg15
I10
sg21
I238
sssS'Human,ABRF,P,ABRF-ILMN-N-BR'
p1452
(dp1453
g3
(dp1454
g5
I1118
sg6
I147477
ssg7
(dp1455
g9
I4688
sg10
I140203
sg11
I3704
ssg12
(dp1456
g14
I12
sg15
I8
sg16
I479
sg17
I199
sg18
I1886
sg19
I6843
sg20
I135
sg21
I132
sg22
I52
sg23
I3
sg24
I5565
sg25
I120903
sg26
I11
sg27
I12325
ssg28
(dp1457
g23
I148403
sg22
I52
sg15
I8
sg21
I132
sssS'Human,BrainDataSet,D,Homosapiens'
p1458
(dp1459
g3
(dp1460
g5
I228
sg6
I14781
ssg7
(dp1461
g9
I0
sg10
I15009
sg11
I0
ssg12
(dp1462
g14
I2
sg15
I1
sg16
I129
sg17
I64
sg18
I406
sg19
I1649
sg20
I44
sg21
I12
sg22
I8
sg23
I0
sg24
I763
sg25
I9882
sg26
I2
sg27
I2040
ssg28
(dp1463
g23
I14988
sg22
I8
sg15
I1
sg21
I12
sssS'Human,ABRF,D,ABRF-ILMN-N-AR'
p1464
(dp1465
g3
(dp1466
g5
I79
sg6
I6498
ssg7
(dp1467
g9
I0
sg10
I6577
sg11
I0
ssg12
(dp1468
g14
I0
sg15
I0
sg16
I31
sg17
I15
sg18
I93
sg19
I562
sg20
I7
sg21
I7
sg22
I1
sg23
I0
sg24
I237
sg25
I5024
sg26
I0
sg27
I598
ssg28
(dp1469
g23
I6569
sg22
I1
sg15
I0
sg21
I7
sssS'Human,Encode,G,SkMC'
p1470
(dp1471
g3
(dp1472
g5
I0
sg6
I24063
ssg7
(dp1473
g9
I1169
sg10
I22035
sg11
I859
ssg12
(dp1474
g14
I4
sg15
I2
sg16
I149
sg17
I62
sg18
I371
sg19
I2719
sg20
I39
sg21
I27
sg22
I11
sg23
I0
sg24
I1181
sg25
I17423
sg26
I2
sg27
I2067
ssg28
(dp1475
g23
I24023
sg22
I11
sg15
I2
sg21
I27
sssS'Human,Roadmap,G,CD8_primary_cells'
p1476
(dp1477
g3
(dp1478
g5
I0
sg6
I116208
ssg7
(dp1479
g9
I5477
sg10
I106750
sg11
I3981
ssg12
(dp1480
g14
I9
sg15
I7
sg16
I654
sg17
I255
sg18
I1769
sg19
I7810
sg20
I192
sg21
I125
sg22
I65
sg23
I1
sg24
I5087
sg25
I90130
sg26
I13
sg27
I10046
ssg28
(dp1481
g23
I116011
sg22
I65
sg15
I7
sg21
I125
sssS'Human,CCLE,S,CCLE-LGG'
p1482
(dp1483
g3
(dp1484
g5
I1119
sg6
I128635
ssg7
(dp1485
g9
I3792
sg10
I120200
sg11
I5762
ssg12
(dp1486
g14
I22
sg15
I9
sg16
I837
sg17
I557
sg18
I3507
sg19
I15777
sg20
I236
sg21
I836
sg22
I318
sg23
I9
sg24
I5843
sg25
I87467
sg26
I16
sg27
I14248
ssg28
(dp1487
g23
I128591
sg22
I318
sg15
I9
sg21
I836
sssS'Human,CCLE,D,CCLE-BRCA'
p1488
(dp1489
g3
(dp1490
g5
I658
sg6
I38047
ssg7
(dp1491
g9
I2
sg10
I38703
sg11
I0
ssg12
(dp1492
g14
I3
sg15
I1
sg16
I196
sg17
I95
sg18
I623
sg19
I2214
sg20
I77
sg21
I27
sg22
I7
sg23
I0
sg24
I1990
sg25
I29053
sg26
I1
sg27
I4410
ssg28
(dp1493
g23
I38670
sg22
I7
sg15
I1
sg21
I27
sssS'Human,Roadmap,G,small_intestine'
p1494
(dp1495
g3
(dp1496
g5
I0
sg6
I91644
ssg7
(dp1497
g9
I2775
sg10
I86327
sg11
I2542
ssg12
(dp1498
g14
I19
sg15
I9
sg16
I731
sg17
I243
sg18
I1788
sg19
I9974
sg20
I183
sg21
I321
sg22
I108
sg23
I18
sg24
I5217
sg25
I63878
sg26
I9
sg27
I9104
ssg28
(dp1499
g23
I91206
sg22
I108
sg15
I9
sg21
I321
sssS'Human,Encode,S,hMSC-BM'
p1500
(dp1501
g3
(dp1502
g5
I779
sg6
I85276
ssg7
(dp1503
g9
I3674
sg10
I79869
sg11
I2512
ssg12
(dp1504
g14
I8
sg15
I5
sg16
I362
sg17
I162
sg18
I1196
sg19
I6769
sg20
I100
sg21
I85
sg22
I35
sg23
I0
sg24
I4024
sg25
I65103
sg26
I5
sg27
I8178
ssg28
(dp1505
g23
I85930
sg22
I35
sg15
I5
sg21
I85
sssS'Human,Encode,P,hMSC-UC'
p1506
(dp1507
g3
(dp1508
g5
I685
sg6
I69221
ssg7
(dp1509
g9
I3264
sg10
I64254
sg11
I2388
ssg12
(dp1510
g14
I6
sg15
I5
sg16
I304
sg17
I134
sg18
I978
sg19
I5445
sg20
I101
sg21
I70
sg22
I35
sg23
I2
sg24
I2930
sg25
I53417
sg26
I7
sg27
I6450
ssg28
(dp1511
g23
I69796
sg22
I35
sg15
I5
sg21
I70
sssS'Human,SEQC,S,ILM_COH_B'
p1512
(dp1513
g3
(dp1514
g5
I1340
sg6
I117208
ssg7
(dp1515
g9
I2714
sg10
I113179
sg11
I2655
ssg12
(dp1516
g14
I28
sg15
I17
sg16
I1258
sg17
I596
sg18
I4997
sg19
I24285
sg20
I267
sg21
I308
sg22
I137
sg23
I4
sg24
I6503
sg25
I65109
sg26
I21
sg27
I14929
ssg28
(dp1517
g23
I118086
sg22
I137
sg15
I17
sg21
I308
sssS'Human,SEQC,S,ILM_COH_C'
p1518
(dp1519
g3
(dp1520
g5
I1181
sg6
I102233
ssg7
(dp1521
g9
I2324
sg10
I98892
sg11
I2198
ssg12
(dp1522
g14
I26
sg15
I13
sg16
I999
sg17
I467
sg18
I4118
sg19
I19565
sg20
I243
sg21
I245
sg22
I118
sg23
I2
sg24
I5692
sg25
I58593
sg26
I17
sg27
I13237
ssg28
(dp1523
g23
I103038
sg22
I118
sg15
I13
sg21
I245
sssS'Human,Encode,S,Hmnccb'
p1524
(dp1525
g3
(dp1526
g5
I183
sg6
I14456
ssg7
(dp1527
g9
I670
sg10
I13320
sg11
I649
ssg12
(dp1528
g14
I1
sg15
I2
sg16
I27
sg17
I27
sg18
I208
sg19
I927
sg20
I12
sg21
I16
sg22
I8
sg23
I0
sg24
I270
sg25
I12298
sg26
I1
sg27
I840
ssg28
(dp1529
g23
I14613
sg22
I8
sg15
I2
sg21
I16
sssS'Human,SEQC,S,ILM_COH_A'
p1530
(dp1531
g3
(dp1532
g5
I1103
sg6
I90811
ssg7
(dp1533
g9
I1957
sg10
I88238
sg11
I1719
ssg12
(dp1534
g14
I19
sg15
I12
sg16
I914
sg17
I397
sg18
I3605
sg19
I16720
sg20
I235
sg21
I223
sg22
I103
sg23
I3
sg24
I5122
sg25
I52554
sg26
I19
sg27
I11933
ssg28
(dp1535
g23
I91576
sg22
I103
sg15
I12
sg21
I223
sssS'Human,SEQC,S,ILM_COH_D'
p1536
(dp1537
g3
(dp1538
g5
I1365
sg6
I117737
ssg7
(dp1539
g9
I2698
sg10
I113775
sg11
I2629
ssg12
(dp1540
g14
I27
sg15
I14
sg16
I1222
sg17
I562
sg18
I4982
sg19
I23521
sg20
I261
sg21
I276
sg22
I134
sg23
I4
sg24
I6493
sg25
I66326
sg26
I21
sg27
I15185
ssg28
(dp1541
g23
I118678
sg22
I134
sg15
I14
sg21
I276
sssS'Human,Encode,S,HAoEC'
p1542
(dp1543
g3
(dp1544
g5
I626
sg6
I83595
ssg7
(dp1545
g9
I3690
sg10
I77636
sg11
I2895
ssg12
(dp1546
g14
I4
sg15
I2
sg16
I237
sg17
I126
sg18
I842
sg19
I3829
sg20
I83
sg21
I65
sg22
I32
sg23
I0
sg24
I2948
sg25
I69304
sg26
I4
sg27
I6733
ssg28
(dp1547
g23
I84122
sg22
I32
sg15
I2
sg21
I65
sssS'Human,Encode,P,HPIEpC'
p1548
(dp1549
g3
(dp1550
g5
I443
sg6
I39171
ssg7
(dp1551
g9
I1736
sg10
I36581
sg11
I1297
ssg12
(dp1552
g14
I7
sg15
I5
sg16
I193
sg17
I80
sg18
I621
sg19
I3135
sg20
I59
sg21
I45
sg22
I26
sg23
I0
sg24
I1739
sg25
I29861
sg26
I4
sg27
I3824
ssg28
(dp1553
g23
I39538
sg22
I26
sg15
I5
sg21
I45
sssS'Human,Encode,P,HeLa-S3'
p1554
(dp1555
g3
(dp1556
g5
I1212
sg6
I157756
ssg7
(dp1557
g9
I5058
sg10
I149709
sg11
I4201
ssg12
(dp1558
g14
I13
sg15
I8
sg16
I797
sg17
I355
sg18
I2607
sg19
I10495
sg20
I327
sg21
I156
sg22
I75
sg23
I1
sg24
I7709
sg25
I117867
sg26
I13
sg27
I18515
ssg28
(dp1559
g23
I158729
sg22
I75
sg15
I8
sg21
I156
sssS'Human,Encode,P,CD20+'
p1560
(dp1561
g3
(dp1562
g5
I1035
sg6
I133366
ssg7
(dp1563
g9
I3802
sg10
I127352
sg11
I3247
ssg12
(dp1564
g14
I8
sg15
I9
sg16
I552
sg17
I286
sg18
I2108
sg19
I7777
sg20
I222
sg21
I155
sg22
I72
sg23
I0
sg24
I4739
sg25
I105939
sg26
I12
sg27
I12493
ssg28
(dp1565
g23
I134165
sg22
I72
sg15
I9
sg21
I155
sssS'Human,ABRF,P,ABRF-ILMN-R-A'
p1566
(dp1567
g3
(dp1568
g5
I807
sg6
I84416
ssg7
(dp1569
g9
I2384
sg10
I80857
sg11
I1982
ssg12
(dp1570
g14
I6
sg15
I1
sg16
I290
sg17
I121
sg18
I1135
sg19
I4295
sg20
I93
sg21
I75
sg22
I35
sg23
I1
sg24
I3459
sg25
I67381
sg26
I3
sg27
I8311
ssg28
(dp1571
g23
I85112
sg22
I35
sg15
I1
sg21
I75
sssS'Human,ABRF,P,ABRF-ILMN-R-B'
p1572
(dp1573
g3
(dp1574
g5
I1084
sg6
I129297
ssg7
(dp1575
g9
I5301
sg10
I121023
sg11
I4057
ssg12
(dp1576
g14
I13
sg15
I7
sg16
I463
sg17
I176
sg18
I1717
sg19
I6715
sg20
I122
sg21
I127
sg22
I53
sg23
I3
sg24
I4740
sg25
I105431
sg26
I8
sg27
I10764
ssg28
(dp1577
g23
I130194
sg22
I53
sg15
I7
sg21
I127
sssS'Human,Encode,D,HVMF'
p1578
(dp1579
g3
(dp1580
g5
I251
sg6
I10292
ssg7
(dp1581
g9
I0
sg10
I10543
sg11
I0
ssg12
(dp1582
g14
I0
sg15
I0
sg16
I52
sg17
I23
sg18
I127
sg19
I956
sg20
I12
sg21
I4
sg22
I1
sg23
I0
sg24
I367
sg25
I8059
sg26
I0
sg27
I939
ssg28
(dp1583
g23
I10538
sg22
I1
sg15
I0
sg21
I4
sssS'Human,CCLE,S,CCLE-CESC'
p1584
(dp1585
g3
(dp1586
g5
I943
sg6
I100304
ssg7
(dp1587
g9
I4677
sg10
I77223
sg11
I19347
ssg12
(dp1588
g14
I13
sg15
I23
sg16
I706
sg17
I796
sg18
I3133
sg19
I16621
sg20
I230
sg21
I4176
sg22
I1390
sg23
I31
sg24
I4234
sg25
I59081
sg26
I8
sg27
I10732
ssg28
(dp1589
g23
I95658
sg22
I1390
sg15
I23
sg21
I4176
sssS'Human,Encode,S,HWP'
p1590
(dp1591
g3
(dp1592
g5
I514
sg6
I52793
ssg7
(dp1593
g9
I2149
sg10
I49587
sg11
I1571
ssg12
(dp1594
g14
I3
sg15
I4
sg16
I208
sg17
I87
sg18
I660
sg19
I3680
sg20
I61
sg21
I46
sg22
I22
sg23
I0
sg24
I2251
sg25
I41517
sg26
I4
sg27
I4752
ssg28
(dp1595
g23
I53235
sg22
I22
sg15
I4
sg21
I46
sssS'Human,Roadmap,S,H1_BMP4_derived_mesendoderm_cultured_cells'
p1596
(dp1597
g3
(dp1598
g5
I558
sg6
I44174
ssg7
(dp1599
g9
I1113
sg10
I42755
sg11
I864
ssg12
(dp1600
g14
I7
sg15
I3
sg16
I400
sg17
I106
sg18
I1071
sg19
I5817
sg20
I68
sg21
I46
sg22
I22
sg23
I0
sg24
I2241
sg25
I30015
sg26
I4
sg27
I4915
ssg28
(dp1601
g23
I44661
sg22
I22
sg15
I3
sg21
I46
sssS'Human,CCLE,G,CCLE-LCLL'
p1602
(dp1603
g3
(dp1604
g5
I0
sg6
I136750
ssg7
(dp1605
g9
I4916
sg10
I126172
sg11
I5662
ssg12
(dp1606
g14
I48
sg15
I9
sg16
I970
sg17
I591
sg18
I3495
sg19
I15581
sg20
I347
sg21
I617
sg22
I250
sg23
I10
sg24
I8432
sg25
I91447
sg26
I19
sg27
I14870
ssg28
(dp1607
g23
I135874
sg22
I250
sg15
I9
sg21
I617
sssS'Human,HumanBodyMap,P,brain'
p1608
(dp1609
g3
(dp1610
g5
I339
sg6
I6765
ssg7
(dp1611
g9
I375
sg10
I6304
sg11
I425
ssg12
(dp1612
g14
I0
sg15
I0
sg16
I123
sg17
I18
sg18
I357
sg19
I2817
sg20
I10
sg21
I35
sg22
I14
sg23
I0
sg24
I362
sg25
I2555
sg26
I1
sg27
I796
ssg28
(dp1613
g23
I7055
sg22
I14
sg15
I0
sg21
I35
sssS'Human,GEUV,S,TSI'
p1614
(dp1615
g3
(dp1616
g5
I1672
sg6
I190681
ssg7
(dp1617
g9
I5243
sg10
I181717
sg11
I5393
ssg12
(dp1618
g14
I25
sg15
I16
sg16
I1298
sg17
I529
sg18
I4490
sg19
I23055
sg20
I389
sg21
I1012
sg22
I365
sg23
I53
sg24
I9458
sg25
I128662
sg26
I23
sg27
I22901
ssg28
(dp1619
g23
I190960
sg22
I365
sg15
I16
sg21
I1012
sssS'Human,Roadmap,D,small_intestine'
p1620
(dp1621
g3
(dp1622
g5
I240
sg6
I13926
ssg7
(dp1623
g9
I0
sg10
I14166
sg11
I0
ssg12
(dp1624
g14
I1
sg15
I1
sg16
I112
sg17
I35
sg18
I277
sg19
I1421
sg20
I37
sg21
I10
sg22
I7
sg23
I0
sg24
I744
sg25
I9782
sg26
I0
sg27
I1733
ssg28
(dp1625
g23
I14148
sg22
I7
sg15
I1
sg21
I10
sssS'Human,CCLE,S,CCLE-HNSC'
p1626
(dp1627
g3
(dp1628
g5
I724
sg6
I58617
ssg7
(dp1629
g9
I1584
sg10
I55124
sg11
I2633
ssg12
(dp1630
g14
I11
sg15
I7
sg16
I477
sg17
I329
sg18
I1973
sg19
I10230
sg20
I136
sg21
I420
sg22
I133
sg23
I4
sg24
I2862
sg25
I35701
sg26
I9
sg27
I7004
ssg28
(dp1631
g23
I58781
sg22
I133
sg15
I7
sg21
I420
sssS'Human,SEQC,G,ILM_MAY_C'
p1632
(dp1633
g3
(dp1634
g5
I0
sg6
I109763
ssg7
(dp1635
g9
I2470
sg10
I104883
sg11
I2410
ssg12
(dp1636
g14
I27
sg15
I12
sg16
I1101
sg17
I521
sg18
I3769
sg19
I21304
sg20
I281
sg21
I274
sg22
I131
sg23
I2
sg24
I6573
sg25
I64050
sg26
I15
sg27
I11627
ssg28
(dp1637
g23
I109346
sg22
I131
sg15
I12
sg21
I274
sssS'Human,SEQC,G,ILM_MAY_B'
p1638
(dp1639
g3
(dp1640
g5
I0
sg6
I129941
ssg7
(dp1641
g9
I3125
sg10
I123892
sg11
I2924
ssg12
(dp1642
g14
I33
sg15
I18
sg16
I1354
sg17
I628
sg18
I4513
sg19
I25013
sg20
I297
sg21
I293
sg22
I137
sg23
I3
sg24
I7417
sg25
I76329
sg26
I16
sg27
I13810
ssg28
(dp1643
g23
I129493
sg22
I137
sg15
I18
sg21
I293
sssS'Human,SEQC,G,ILM_MAY_A'
p1644
(dp1645
g3
(dp1646
g5
I0
sg6
I104334
ssg7
(dp1647
g9
I2262
sg10
I100155
sg11
I1917
ssg12
(dp1648
g14
I22
sg15
I16
sg16
I1093
sg17
I456
sg18
I3429
sg19
I18915
sg20
I251
sg21
I230
sg22
I115
sg23
I3
sg24
I6134
sg25
I62389
sg26
I15
sg27
I11199
ssg28
(dp1649
g23
I103973
sg22
I115
sg15
I16
sg21
I230
sssS'Human,SEQC,G,ILM_MAY_D'
p1650
(dp1651
g3
(dp1652
g5
I0
sg6
I121174
ssg7
(dp1653
g9
I2758
sg10
I115686
sg11
I2730
ssg12
(dp1654
g14
I30
sg15
I13
sg16
I1257
sg17
I585
sg18
I4215
sg19
I23834
sg20
I283
sg21
I293
sg22
I149
sg23
I3
sg24
I6953
sg25
I70516
sg26
I15
sg27
I12945
ssg28
(dp1655
g23
I120719
sg22
I149
sg15
I13
sg21
I293
sssS'Human,CCLE,P,CCLE-ESCA'
p1656
(dp1657
g3
(dp1658
g5
I708
sg6
I62295
ssg7
(dp1659
g9
I1435
sg10
I60497
sg11
I1071
ssg12
(dp1660
g14
I13
sg15
I6
sg16
I504
sg17
I294
sg18
I2101
sg19
I9467
sg20
I165
sg21
I114
sg22
I47
sg23
I0
sg24
I3347
sg25
I38933
sg26
I12
sg27
I7963
ssg28
(dp1661
g23
I62836
sg22
I47
sg15
I6
sg21
I114
sssS'Human,BrainDataSet,P,frontal_cortex'
p1662
(dp1663
g3
(dp1664
g5
I425
sg6
I16548
ssg7
(dp1665
g9
I418
sg10
I16045
sg11
I510
ssg12
(dp1666
g14
I2
sg15
I4
sg16
I238
sg17
I85
sg18
I843
sg19
I4381
sg20
I47
sg21
I66
sg22
I23
sg23
I2
sg24
I977
sg25
I8065
sg26
I3
sg27
I2213
ssg28
(dp1667
g23
I16880
sg22
I23
sg15
I4
sg21
I66
sssS'Human,Encode,G,hMSC-UC'
p1668
(dp1669
g3
(dp1670
g5
I0
sg6
I62386
ssg7
(dp1671
g9
I3184
sg10
I57129
sg11
I2073
ssg12
(dp1672
g14
I11
sg15
I5
sg16
I281
sg17
I120
sg18
I827
sg19
I5013
sg20
I98
sg21
I52
sg22
I29
sg23
I2
sg24
I2744
sg25
I48216
sg26
I5
sg27
I4963
ssg28
(dp1673
g23
I62300
sg22
I29
sg15
I5
sg21
I52
sssS'Human,CCLE,G,CCLE-SARC'
p1674
(dp1675
g3
(dp1676
g5
I0
sg6
I60565
ssg7
(dp1677
g9
I1949
sg10
I56535
sg11
I2081
ssg12
(dp1678
g14
I21
sg15
I6
sg16
I538
sg17
I309
sg18
I1772
sg19
I10027
sg20
I182
sg21
I170
sg22
I70
sg23
I1
sg24
I3532
sg25
I37746
sg26
I9
sg27
I6136
ssg28
(dp1679
g23
I60319
sg22
I70
sg15
I6
sg21
I170
sssS'Human,Roadmap,S,gastric'
p1680
(dp1681
g3
(dp1682
g5
I349
sg6
I15243
ssg7
(dp1683
g9
I154
sg10
I15225
sg11
I213
ssg12
(dp1684
g14
I3
sg15
I2
sg16
I195
sg17
I19
sg18
I399
sg19
I3102
sg20
I21
sg21
I55
sg22
I29
sg23
I1
sg24
I750
sg25
I9265
sg26
I2
sg27
I1738
ssg28
(dp1685
g23
I15506
sg22
I29
sg15
I2
sg21
I55
sssS'Human,Encode,P,H1-hESC'
p1686
(dp1687
g3
(dp1688
g5
I1284
sg6
I182750
ssg7
(dp1689
g9
I6789
sg10
I172475
sg11
I4770
ssg12
(dp1690
g14
I11
sg15
I6
sg16
I817
sg17
I330
sg18
I2662
sg19
I10083
sg20
I305
sg21
I155
sg22
I73
sg23
I3
sg24
I8870
sg25
I139715
sg26
I16
sg27
I20947
ssg28
(dp1691
g23
I183800
sg22
I73
sg15
I6
sg21
I155
sssS'Human,CCLE,D,CCLE-MM'
p1692
(dp1693
g3
(dp1694
g5
I418
sg6
I23085
ssg7
(dp1695
g9
I2
sg10
I23501
sg11
I0
ssg12
(dp1696
g14
I2
sg15
I3
sg16
I148
sg17
I71
sg18
I445
sg19
I1679
sg20
I51
sg21
I23
sg22
I7
sg23
I0
sg24
I1237
sg25
I16934
sg26
I1
sg27
I2893
ssg28
(dp1697
g23
I23470
sg22
I7
sg15
I3
sg21
I23
sssS'Human,Roadmap,P,H1_derived_mesenchymal_stem_cells'
p1698
(dp1699
g3
(dp1700
g5
I625
sg6
I42687
ssg7
(dp1701
g9
I997
sg10
I41515
sg11
I800
ssg12
(dp1702
g14
I8
sg15
I3
sg16
I382
sg17
I157
sg18
I1147
sg19
I6993
sg20
I104
sg21
I74
sg22
I33
sg23
I0
sg24
I2319
sg25
I27245
sg26
I5
sg27
I4826
ssg28
(dp1703
g23
I43202
sg22
I33
sg15
I3
sg21
I74
sssS'Human,GEUV,G,FIN'
p1704
(dp1705
g3
(dp1706
g5
I0
sg6
I184750
ssg7
(dp1707
g9
I5315
sg10
I172859
sg11
I6576
ssg12
(dp1708
g14
I24
sg15
I19
sg16
I1287
sg17
I551
sg18
I3906
sg19
I21369
sg20
I418
sg21
I1580
sg22
I592
sg23
I132
sg24
I9819
sg25
I126342
sg26
I21
sg27
I18627
ssg28
(dp1709
g23
I182559
sg22
I592
sg15
I19
sg21
I1580
sssS'Human,Encode,S,hMSC-UC'
p1710
(dp1711
g3
(dp1712
g5
I660
sg6
I64500
ssg7
(dp1713
g9
I3033
sg10
I60009
sg11
I2118
ssg12
(dp1714
g14
I6
sg15
I5
sg16
I299
sg17
I129
sg18
I958
sg19
I5429
sg20
I92
sg21
I74
sg22
I32
sg23
I2
sg24
I2700
sg25
I49374
sg26
I7
sg27
I6032
ssg28
(dp1715
g23
I65049
sg22
I32
sg15
I5
sg21
I74
sssS'Human,ABRF,S,ABRF-ILMN-RIBO-D'
p1716
(dp1717
g3
(dp1718
g5
I388
sg6
I28380
ssg7
(dp1719
g9
I1610
sg10
I25937
sg11
I1221
ssg12
(dp1720
g14
I4
sg15
I2
sg16
I148
sg17
I54
sg18
I543
sg19
I2544
sg20
I26
sg21
I42
sg22
I16
sg23
I0
sg24
I1122
sg25
I21607
sg26
I1
sg27
I2647
ssg28
(dp1721
g23
I28708
sg22
I16
sg15
I2
sg21
I42
sssS'Human,Roadmap,G,bladder'
p1722
(dp1723
g3
(dp1724
g5
I0
sg6
I21622
ssg7
(dp1725
g9
I644
sg10
I20201
sg11
I777
ssg12
(dp1726
g14
I7
sg15
I5
sg16
I338
sg17
I145
sg18
I935
sg19
I6232
sg20
I55
sg21
I131
sg22
I45
sg23
I0
sg24
I1463
sg25
I9688
sg26
I3
sg27
I2557
ssg28
(dp1727
g23
I21441
sg22
I45
sg15
I5
sg21
I131
sssS'Human,CCLE,G,CCLE-LUSC'
p1728
(dp1729
g3
(dp1730
g5
I0
sg6
I188616
ssg7
(dp1731
g9
I8389
sg10
I172060
sg11
I8167
ssg12
(dp1732
g14
I56
sg15
I17
sg16
I1425
sg17
I873
sg18
I5118
sg19
I21278
sg20
I473
sg21
I703
sg22
I282
sg23
I9
sg24
I11657
sg25
I124953
sg26
I32
sg27
I21649
ssg28
(dp1733
g23
I187614
sg22
I282
sg15
I17
sg21
I703
sssS'Human,ABRF,S,ABRF-ILMN-RIBO-A'
p1734
(dp1735
g3
(dp1736
g5
I196
sg6
I10655
ssg7
(dp1737
g9
I1209
sg10
I8696
sg11
I946
ssg12
(dp1738
g14
I3
sg15
I0
sg16
I52
sg17
I17
sg18
I201
sg19
I970
sg20
I4
sg21
I19
sg22
I13
sg23
I0
sg24
I434
sg25
I8076
sg26
I0
sg27
I1055
ssg28
(dp1739
g23
I10819
sg22
I13
sg15
I0
sg21
I19
sssS'Human,ABRF,S,ABRF-ILMN-RIBO-B'
p1740
(dp1741
g3
(dp1742
g5
I161
sg6
I6372
ssg7
(dp1743
g9
I655
sg10
I5349
sg11
I529
ssg12
(dp1744
g14
I1
sg15
I2
sg16
I50
sg17
I11
sg18
I185
sg19
I1015
sg20
I5
sg21
I25
sg22
I10
sg23
I0
sg24
I259
sg25
I4307
sg26
I1
sg27
I658
ssg28
(dp1745
g23
I6496
sg22
I10
sg15
I2
sg21
I25
sssS'Human,ABRF,S,ABRF-ILMN-RIBO-C'
p1746
(dp1747
g3
(dp1748
g5
I362
sg6
I22048
ssg7
(dp1749
g9
I1464
sg10
I19678
sg11
I1268
ssg12
(dp1750
g14
I3
sg15
I4
sg16
I104
sg17
I29
sg18
I429
sg19
I1904
sg20
I12
sg21
I40
sg22
I17
sg23
I0
sg24
I851
sg25
I16881
sg26
I1
sg27
I2121
ssg28
(dp1751
g23
I22349
sg22
I17
sg15
I4
sg21
I40
sssS'Human,SEQC,D,ILM_CNL_D'
p1752
(dp1753
g3
(dp1754
g5
I649
sg6
I55658
ssg7
(dp1755
g9
I6
sg10
I56300
sg11
I1
ssg12
(dp1756
g14
I6
sg15
I6
sg16
I322
sg17
I162
sg18
I1135
sg19
I3822
sg20
I100
sg21
I70
sg22
I22
sg23
I1
sg24
I2922
sg25
I40860
sg26
I4
sg27
I6860
ssg28
(dp1757
g23
I56209
sg22
I22
sg15
I6
sg21
I70
sssS'Human,SEQC,D,ILM_CNL_B'
p1758
(dp1759
g3
(dp1760
g5
I683
sg6
I61294
ssg7
(dp1761
g9
I5
sg10
I61971
sg11
I1
ssg12
(dp1762
g14
I4
sg15
I4
sg16
I369
sg17
I163
sg18
I1158
sg19
I4066
sg20
I128
sg21
I57
sg22
I29
sg23
I0
sg24
I3332
sg25
I45267
sg26
I4
sg27
I7377
ssg28
(dp1763
g23
I61887
sg22
I29
sg15
I4
sg21
I57
sssS'Human,SEQC,D,ILM_CNL_C'
p1764
(dp1765
g3
(dp1766
g5
I670
sg6
I53046
ssg7
(dp1767
g9
I3
sg10
I53713
sg11
I0
ssg12
(dp1768
g14
I3
sg15
I9
sg16
I288
sg17
I129
sg18
I1007
sg19
I3495
sg20
I100
sg21
I62
sg22
I24
sg23
I2
sg24
I2765
sg25
I39284
sg26
I3
sg27
I6534
ssg28
(dp1769
g23
I53621
sg22
I24
sg15
I9
sg21
I62
sssS'Human,SEQC,D,ILM_CNL_A'
p1770
(dp1771
g3
(dp1772
g5
I512
sg6
I38604
ssg7
(dp1773
g9
I5
sg10
I39110
sg11
I1
ssg12
(dp1774
g14
I6
sg15
I5
sg16
I226
sg17
I106
sg18
I776
sg19
I2829
sg20
I70
sg21
I48
sg22
I19
sg23
I0
sg24
I2108
sg25
I27947
sg26
I0
sg27
I4962
ssg28
(dp1775
g23
I39044
sg22
I19
sg15
I5
sg21
I48
sssS'Human,CCLE,G,CCLE-ESCA'
p1776
(dp1777
g3
(dp1778
g5
I0
sg6
I64226
ssg7
(dp1779
g9
I2409
sg10
I59638
sg11
I2179
ssg12
(dp1780
g14
I18
sg15
I9
sg16
I536
sg17
I369
sg18
I2006
sg19
I9658
sg20
I193
sg21
I207
sg22
I89
sg23
I0
sg24
I3829
sg25
I39739
sg26
I11
sg27
I7523
ssg28
(dp1781
g23
I63921
sg22
I89
sg15
I9
sg21
I207
sssS'Human,CCLE,S,CCLE-LUSC'
p1782
(dp1783
g3
(dp1784
g5
I1574
sg6
I208548
ssg7
(dp1785
g9
I7714
sg10
I185583
sg11
I16825
ssg12
(dp1786
g14
I33
sg15
I20
sg16
I1483
sg17
I1212
sg18
I6314
sg19
I26253
sg20
I481
sg21
I2513
sg22
I910
sg23
I30
sg24
I11030
sg25
I133500
sg26
I30
sg27
I26212
ssg28
(dp1787
g23
I206679
sg22
I910
sg15
I20
sg21
I2513
sssS'Human,CCLE,D,CCLE-THCA'
p1788
(dp1789
g3
(dp1790
g5
I215
sg6
I11108
ssg7
(dp1791
g9
I1
sg10
I11322
sg11
I0
ssg12
(dp1792
g14
I1
sg15
I0
sg16
I70
sg17
I35
sg18
I254
sg19
I1165
sg20
I22
sg21
I15
sg22
I3
sg23
I0
sg24
I545
sg25
I7799
sg26
I0
sg27
I1410
ssg28
(dp1793
g23
I11305
sg22
I3
sg15
I0
sg21
I15
sssS'Human,Roadmap,D,CD3_primary_cells'
p1794
(dp1795
g3
(dp1796
g5
I294
sg6
I20226
ssg7
(dp1797
g9
I3
sg10
I20517
sg11
I0
ssg12
(dp1798
g14
I0
sg15
I1
sg16
I80
sg17
I30
sg18
I194
sg19
I901
sg20
I15
sg21
I18
sg22
I6
sg23
I0
sg24
I650
sg25
I16913
sg26
I0
sg27
I1704
ssg28
(dp1799
g23
I20495
sg22
I6
sg15
I1
sg21
I18
sssS'Human,GEUV,P,GBR'
p1800
(dp1801
g3
(dp1802
g5
I1778
sg6
I233218
ssg7
(dp1803
g9
I6441
sg10
I223474
sg11
I5081
ssg12
(dp1804
g14
I23
sg15
I15
sg16
I1431
sg17
I542
sg18
I4751
sg19
I20397
sg20
I508
sg21
I433
sg22
I192
sg23
I9
sg24
I12757
sg25
I163964
sg26
I29
sg27
I29879
ssg28
(dp1805
g23
I234356
sg22
I192
sg15
I15
sg21
I433
sssS'Human,Encode,S,HVMF'
p1806
(dp1807
g3
(dp1808
g5
I690
sg6
I62456
ssg7
(dp1809
g9
I2470
sg10
I58877
sg11
I1799
ssg12
(dp1810
g14
I9
sg15
I4
sg16
I318
sg17
I95
sg18
I949
sg19
I6157
sg20
I67
sg21
I66
sg22
I26
sg23
I0
sg24
I2517
sg25
I47066
sg26
I7
sg27
I5839
ssg28
(dp1811
g23
I63050
sg22
I26
sg15
I4
sg21
I66
sssS'Human,ABRF,D,ABRF-ILMN-L-B'
p1812
(dp1813
g3
(dp1814
g5
I68
sg6
I8857
ssg7
(dp1815
g9
I0
sg10
I8925
sg11
I0
ssg12
(dp1816
g14
I0
sg15
I1
sg16
I36
sg17
I16
sg18
I123
sg19
I800
sg20
I8
sg21
I8
sg22
I3
sg23
I0
sg24
I316
sg25
I6836
sg26
I1
sg27
I775
ssg28
(dp1817
g23
I8913
sg22
I3
sg15
I1
sg21
I8
sssS'Human,Encode,D,HUVEC'
p1818
(dp1819
g3
(dp1820
g5
I437
sg6
I24881
ssg7
(dp1821
g9
I0
sg10
I25318
sg11
I0
ssg12
(dp1822
g14
I1
sg15
I2
sg16
I91
sg17
I57
sg18
I263
sg19
I1121
sg20
I41
sg21
I9
sg22
I5
sg23
I0
sg24
I955
sg25
I20415
sg26
I0
sg27
I2355
ssg28
(dp1823
g23
I25302
sg22
I5
sg15
I2
sg21
I9
sssS'Human,Roadmap,G,pancreas'
p1824
(dp1825
g3
(dp1826
g5
I0
sg6
I116796
ssg7
(dp1827
g9
I2386
sg10
I112538
sg11
I1872
ssg12
(dp1828
g14
I11
sg15
I9
sg16
I685
sg17
I257
sg18
I2001
sg19
I8587
sg20
I193
sg21
I115
sg22
I46
sg23
I0
sg24
I5319
sg25
I89405
sg26
I13
sg27
I10108
ssg28
(dp1829
g23
I116626
sg22
I46
sg15
I9
sg21
I115
sssS'Human,ABRF,G,ABRF-ILMN-RNA-B'
p1830
(dp1831
g3
(dp1832
g5
I0
sg6
I13832
ssg7
(dp1833
g9
I456
sg10
I12888
sg11
I488
ssg12
(dp1834
g14
I2
sg15
I3
sg16
I174
sg17
I65
sg18
I521
sg19
I3318
sg20
I23
sg21
I35
sg22
I15
sg23
I0
sg24
I757
sg25
I7582
sg26
I0
sg27
I1316
ssg28
(dp1835
g23
I13779
sg22
I15
sg15
I3
sg21
I35
sssS'Human,ABRF,G,ABRF-ILMN-RNA-C'
p1836
(dp1837
g3
(dp1838
g5
I0
sg6
I11507
ssg7
(dp1839
g9
I357
sg10
I10804
sg11
I346
ssg12
(dp1840
g14
I3
sg15
I3
sg16
I108
sg17
I49
sg18
I423
sg19
I2520
sg20
I26
sg21
I28
sg22
I14
sg23
I0
sg24
I653
sg25
I6556
sg26
I2
sg27
I1112
ssg28
(dp1841
g23
I11462
sg22
I14
sg15
I3
sg21
I28
sssS'Human,ABRF,G,ABRF-ILMN-RNA-A'
p1842
(dp1843
g3
(dp1844
g5
I0
sg6
I9595
ssg7
(dp1845
g9
I355
sg10
I8915
sg11
I325
ssg12
(dp1846
g14
I3
sg15
I1
sg16
I108
sg17
I36
sg18
I343
sg19
I1911
sg20
I30
sg21
I17
sg22
I12
sg23
I0
sg24
I497
sg25
I5696
sg26
I1
sg27
I933
ssg28
(dp1847
g23
I9565
sg22
I12
sg15
I1
sg21
I17
sssS'Human,ABRF,G,ABRF-ILMN-RNA-D'
p1848
(dp1849
g3
(dp1850
g5
I0
sg6
I14380
ssg7
(dp1851
g9
I406
sg10
I13547
sg11
I427
ssg12
(dp1852
g14
I3
sg15
I2
sg16
I165
sg17
I53
sg18
I520
sg19
I3358
sg20
I29
sg21
I34
sg22
I15
sg23
I1
sg24
I781
sg25
I7960
sg26
I2
sg27
I1444
ssg28
(dp1853
g23
I14329
sg22
I15
sg15
I2
sg21
I34
sssS'Human,Encode,P,SkMC'
p1854
(dp1855
g3
(dp1856
g5
I374
sg6
I26599
ssg7
(dp1857
g9
I1234
sg10
I24844
sg11
I895
ssg12
(dp1858
g14
I4
sg15
I2
sg16
I157
sg17
I71
sg18
I410
sg19
I3012
sg20
I41
sg21
I35
sg22
I15
sg23
I1
sg24
I1257
sg25
I19208
sg26
I2
sg27
I2752
ssg28
(dp1859
g23
I26921
sg22
I15
sg15
I2
sg21
I35
sssS'Human,Encode,G,NHDF'
p1860
(dp1861
g3
(dp1862
g5
I0
sg6
I77272
ssg7
(dp1863
g9
I3677
sg10
I71313
sg11
I2282
ssg12
(dp1864
g14
I21
sg15
I4
sg16
I324
sg17
I148
sg18
I984
sg19
I5576
sg20
I90
sg21
I62
sg22
I36
sg23
I1
sg24
I3791
sg25
I59357
sg26
I8
sg27
I6854
ssg28
(dp1865
g23
I77170
sg22
I36
sg15
I4
sg21
I62
sssS'Human,Encode,D,AG04450'
p1866
(dp1867
g3
(dp1868
g5
I168
sg6
I7585
ssg7
(dp1869
g9
I0
sg10
I7753
sg11
I0
ssg12
(dp1870
g14
I0
sg15
I1
sg16
I61
sg17
I19
sg18
I133
sg19
I958
sg20
I20
sg21
I4
sg22
I2
sg23
I0
sg24
I282
sg25
I5488
sg26
I0
sg27
I781
ssg28
(dp1871
g23
I7746
sg22
I2
sg15
I1
sg21
I4
sssS'Human,Roadmap,S,CD4_primary_cells'
p1872
(dp1873
g3
(dp1874
g5
I1005
sg6
I118008
ssg7
(dp1875
g9
I4629
sg10
I110924
sg11
I3460
ssg12
(dp1876
g14
I12
sg15
I7
sg16
I663
sg17
I269
sg18
I2128
sg19
I8832
sg20
I218
sg21
I125
sg22
I60
sg23
I2
sg24
I4943
sg25
I89707
sg26
I16
sg27
I11986
ssg28
(dp1877
g23
I118821
sg22
I60
sg15
I7
sg21
I125
sssS'Human,Encode,D,SK-N-SH_RA'
p1878
(dp1879
g3
(dp1880
g5
I245
sg6
I10790
ssg7
(dp1881
g9
I0
sg10
I11035
sg11
I0
ssg12
(dp1882
g14
I2
sg15
I2
sg16
I64
sg17
I30
sg18
I207
sg19
I993
sg20
I30
sg21
I8
sg22
I1
sg23
I0
sg24
I532
sg25
I7812
sg26
I0
sg27
I1352
ssg28
(dp1883
g23
I11024
sg22
I1
sg15
I2
sg21
I8
sssS'Human,BrainDataSet,G,temporal_cortex'
p1884
(dp1885
g3
(dp1886
g5
I0
sg6
I19535
ssg7
(dp1887
g9
I501
sg10
I18469
sg11
I565
ssg12
(dp1888
g14
I3
sg15
I3
sg16
I245
sg17
I101
sg18
I866
sg19
I5197
sg20
I42
sg21
I53
sg22
I24
sg23
I1
sg24
I1205
sg25
I9471
sg26
I6
sg27
I2298
ssg28
(dp1889
g23
I19455
sg22
I24
sg15
I3
sg21
I53
sssS'Human,Encode,D,Monocytes-CD14+'
p1890
(dp1891
g3
(dp1892
g5
I182
sg6
I9762
ssg7
(dp1893
g9
I1
sg10
I9943
sg11
I0
ssg12
(dp1894
g14
I1
sg15
I0
sg16
I39
sg17
I24
sg18
I140
sg19
I816
sg20
I14
sg21
I5
sg22
I5
sg23
I0
sg24
I325
sg25
I7771
sg26
I0
sg27
I802
ssg28
(dp1895
g23
I9934
sg22
I5
sg15
I0
sg21
I5
sssS'Human,ABRF,P,ABRF-ILMN-V-A'
p1896
(dp1897
g3
(dp1898
g5
I717
sg6
I68357
ssg7
(dp1899
g9
I1980
sg10
I65453
sg11
I1641
ssg12
(dp1900
g14
I7
sg15
I3
sg16
I264
sg17
I100
sg18
I998
sg19
I4114
sg20
I69
sg21
I56
sg22
I21
sg23
I1
sg24
I2658
sg25
I53947
sg26
I2
sg27
I6816
ssg28
(dp1901
g23
I68994
sg22
I21
sg15
I3
sg21
I56
sssS'Human,ABRF,P,ABRF-ILMN-V-B'
p1902
(dp1903
g3
(dp1904
g5
I1101
sg6
I136588
ssg7
(dp1905
g9
I5556
sg10
I127826
sg11
I4307
ssg12
(dp1906
g14
I12
sg15
I11
sg16
I482
sg17
I196
sg18
I1838
sg19
I7276
sg20
I121
sg21
I131
sg22
I58
sg23
I2
sg24
I5110
sg25
I111037
sg26
I8
sg27
I11355
ssg28
(dp1907
g23
I137489
sg22
I58
sg15
I11
sg21
I131
sssS'Human,Encode,P,MCF-7'
p1908
(dp1909
g3
(dp1910
g5
I1032
sg6
I148531
ssg7
(dp1911
g9
I3895
sg10
I142580
sg11
I3088
ssg12
(dp1912
g14
I12
sg15
I9
sg16
I682
sg17
I326
sg18
I2378
sg19
I7764
sg20
I328
sg21
I97
sg22
I57
sg23
I3
sg24
I7863
sg25
I113314
sg26
I16
sg27
I16678
ssg28
(dp1913
g23
I149400
sg22
I57
sg15
I9
sg21
I97
sssS'Human,CCLE,S,CCLE-BLCA'
p1914
(dp1915
g3
(dp1916
g5
I696
sg6
I54507
ssg7
(dp1917
g9
I1405
sg10
I51395
sg11
I2403
ssg12
(dp1918
g14
I8
sg15
I9
sg16
I489
sg17
I297
sg18
I1841
sg19
I9858
sg20
I109
sg21
I343
sg22
I139
sg23
I2
sg24
I2668
sg25
I32978
sg26
I10
sg27
I6422
ssg28
(dp1919
g23
I54712
sg22
I139
sg15
I9
sg21
I343
sssS'Human,HumanBodyMap,P,thyroid'
p1920
(dp1921
g3
(dp1922
g5
I309
sg6
I7192
ssg7
(dp1923
g9
I235
sg10
I6928
sg11
I338
ssg12
(dp1924
g14
I2
sg15
I0
sg16
I134
sg17
I28
sg18
I320
sg19
I3139
sg20
I8
sg21
I24
sg22
I12
sg23
I0
sg24
I369
sg25
I2488
sg26
I2
sg27
I968
ssg28
(dp1925
g23
I7465
sg22
I12
sg15
I0
sg21
I24
sssS'Human,Encode,S,K562'
p1926
(dp1927
g3
(dp1928
g5
I1184
sg6
I193430
ssg7
(dp1929
g9
I6572
sg10
I183863
sg11
I4179
ssg12
(dp1930
g14
I12
sg15
I11
sg16
I604
sg17
I299
sg18
I2263
sg19
I6692
sg20
I274
sg21
I169
sg22
I69
sg23
I1
sg24
I8331
sg25
I155801
sg26
I7
sg27
I20055
ssg28
(dp1931
g23
I194365
sg22
I69
sg15
I11
sg21
I169
sssS'Human,Encode,G,HAoEC'
p1932
(dp1933
g3
(dp1934
g5
I0
sg6
I80896
ssg7
(dp1935
g9
I3878
sg10
I74229
sg11
I2789
ssg12
(dp1936
g14
I7
sg15
I2
sg16
I233
sg17
I118
sg18
I748
sg19
I3535
sg20
I83
sg21
I52
sg22
I22
sg23
I1
sg24
I3006
sg25
I67536
sg26
I4
sg27
I5537
ssg28
(dp1937
g23
I80820
sg22
I22
sg15
I2
sg21
I52
sssS'Human,GEUV,S,YRI'
p1938
(dp1939
g3
(dp1940
g5
I1648
sg6
I191874
ssg7
(dp1941
g9
I5236
sg10
I183277
sg11
I5009
ssg12
(dp1942
g14
I29
sg15
I15
sg16
I1269
sg17
I556
sg18
I4434
sg19
I22829
sg20
I414
sg21
I709
sg22
I296
sg23
I33
sg24
I9377
sg25
I130512
sg26
I25
sg27
I22953
ssg28
(dp1943
g23
I192502
sg22
I296
sg15
I15
sg21
I709
sssS'Human,Encode,G,HMEC'
p1944
(dp1945
g3
(dp1946
g5
I0
sg6
I8270
ssg7
(dp1947
g9
I236
sg10
I7617
sg11
I417
ssg12
(dp1948
g14
I4
sg15
I4
sg16
I94
sg17
I49
sg18
I310
sg19
I2308
sg20
I27
sg21
I32
sg22
I9
sg23
I0
sg24
I506
sg25
I4149
sg26
I0
sg27
I776
ssg28
(dp1949
g23
I8225
sg22
I9
sg15
I4
sg21
I32
sssS'Human,Roadmap,S,sigmoid_colon'
p1950
(dp1951
g3
(dp1952
g5
I884
sg6
I76432
ssg7
(dp1953
g9
I2114
sg10
I73519
sg11
I1683
ssg12
(dp1954
g14
I7
sg15
I6
sg16
I601
sg17
I186
sg18
I1778
sg19
I9423
sg20
I133
sg21
I169
sg22
I69
sg23
I4
sg24
I3727
sg25
I52674
sg26
I11
sg27
I8504
ssg28
(dp1955
g23
I77072
sg22
I69
sg15
I6
sg21
I169
sssS'Human,CCLE,G,CCLE-THCA'
p1956
(dp1957
g3
(dp1958
g5
I0
sg6
I34358
ssg7
(dp1959
g9
I1087
sg10
I32143
sg11
I1128
ssg12
(dp1960
g14
I8
sg15
I7
sg16
I328
sg17
I174
sg18
I1155
sg19
I6354
sg20
I69
sg21
I116
sg22
I57
sg23
I3
sg24
I1993
sg25
I20357
sg26
I7
sg27
I3705
ssg28
(dp1961
g23
I34178
sg22
I57
sg15
I7
sg21
I116
sssS'Human,Encode,G,GM12878'
p1962
(dp1963
g3
(dp1964
g5
I0
sg6
I263214
ssg7
(dp1965
g9
I14586
sg10
I240418
sg11
I8210
ssg12
(dp1966
g14
I22
sg15
I10
sg16
I777
sg17
I376
sg18
I2911
sg19
I10083
sg20
I405
sg21
I182
sg22
I103
sg23
I1
sg24
I12250
sg25
I209562
sg26
I20
sg27
I26466
ssg28
(dp1967
g23
I262919
sg22
I103
sg15
I10
sg21
I182
sssS'Human,CCLE,P,CCLE-SARC'
p1968
(dp1969
g3
(dp1970
g5
I713
sg6
I60440
ssg7
(dp1971
g9
I1187
sg10
I58935
sg11
I1031
ssg12
(dp1972
g14
I16
sg15
I6
sg16
I522
sg17
I285
sg18
I1868
sg19
I9936
sg20
I153
sg21
I99
sg22
I34
sg23
I0
sg24
I3100
sg25
I38127
sg26
I10
sg27
I6960
ssg28
(dp1973
g23
I61014
sg22
I34
sg15
I6
sg21
I99
sssS'Human,CCLE,D,CCLE-LCLL'
p1974
(dp1975
g3
(dp1976
g5
I781
sg6
I49628
ssg7
(dp1977
g9
I3
sg10
I50404
sg11
I2
ssg12
(dp1978
g14
I3
sg15
I2
sg16
I243
sg17
I114
sg18
I755
sg19
I2436
sg20
I96
sg21
I40
sg22
I15
sg23
I1
sg24
I2705
sg25
I37925
sg26
I3
sg27
I6056
ssg28
(dp1979
g23
I50352
sg22
I15
sg15
I2
sg21
I40
sssS'Human,ABRF,G,ABRF-ILMN-RIBO-B'
p1980
(dp1981
g3
(dp1982
g5
I0
sg6
I6050
ssg7
(dp1983
g9
I603
sg10
I4966
sg11
I481
ssg12
(dp1984
g14
I1
sg15
I2
sg16
I45
sg17
I10
sg18
I144
sg19
I887
sg20
I5
sg21
I22
sg22
I8
sg23
I0
sg24
I245
sg25
I4154
sg26
I1
sg27
I523
ssg28
(dp1985
g23
I6018
sg22
I8
sg15
I2
sg21
I22
sssS'Human,HumanBodyMap,S,lymph_node'
p1986
(dp1987
g3
(dp1988
g5
I307
sg6
I7011
ssg7
(dp1989
g9
I177
sg10
I6834
sg11
I307
ssg12
(dp1990
g14
I1
sg15
I1
sg16
I113
sg17
I35
sg18
I321
sg19
I2952
sg20
I19
sg21
I89
sg22
I38
sg23
I3
sg24
I331
sg25
I2590
sg26
I2
sg27
I811
ssg28
(dp1991
g23
I7190
sg22
I38
sg15
I1
sg21
I89
sssS'Human,SEQC,P,ILM_AGR_B'
p1992
(dp1993
g3
(dp1994
g5
I2239
sg6
I312712
ssg7
(dp1995
g9
I8510
sg10
I298946
sg11
I7495
ssg12
(dp1996
g14
I41
sg15
I22
sg16
I2592
sg17
I1103
sg18
I9881
sg19
I33822
sg20
I671
sg21
I524
sg22
I238
sg23
I9
sg24
I19347
sg25
I204723
sg26
I41
sg27
I41774
ssg28
(dp1997
g23
I314167
sg22
I238
sg15
I22
sg21
I524
sssS'Human,BrainDataSet,S,frontal_cortex'
p1998
(dp1999
g3
(dp2000
g5
I423
sg6
I15254
ssg7
(dp2001
g9
I351
sg10
I14879
sg11
I447
ssg12
(dp2002
g14
I2
sg15
I3
sg16
I222
sg17
I81
sg18
I806
sg19
I4354
sg20
I42
sg21
I62
sg22
I21
sg23
I2
sg24
I889
sg25
I7156
sg26
I3
sg27
I2013
ssg28
(dp2003
g23
I15591
sg22
I21
sg15
I3
sg21
I62
sssS'Human,HumanBodyMap,G,thyroid'
p2004
(dp2005
g3
(dp2006
g5
I0
sg6
I6547
ssg7
(dp2007
g9
I192
sg10
I6096
sg11
I259
ssg12
(dp2008
g14
I2
sg15
I0
sg16
I130
sg17
I25
sg18
I252
sg19
I2788
sg20
I8
sg21
I21
sg22
I9
sg23
I0
sg24
I338
sg25
I2220
sg26
I2
sg27
I745
ssg28
(dp2009
g23
I6517
sg22
I9
sg15
I0
sg21
I21
sssS'Human,BrainDataSet,S,Homosapiens'
p2010
(dp2011
g3
(dp2012
g5
I852
sg6
I60153
ssg7
(dp2013
g9
I1736
sg10
I57345
sg11
I1924
ssg12
(dp2014
g14
I13
sg15
I5
sg16
I564
sg17
I322
sg18
I2345
sg19
I10180
sg20
I134
sg21
I160
sg22
I85
sg23
I3
sg24
I3347
sg25
I36030
sg26
I14
sg27
I7755
ssg28
(dp2015
g23
I60755
sg22
I85
sg15
I5
sg21
I160
sssS'Human,Roadmap,G,adrenal_gland'
p2016
(dp2017
g3
(dp2018
g5
I0
sg6
I154279
ssg7
(dp2019
g9
I7123
sg10
I143254
sg11
I3902
ssg12
(dp2020
g14
I15
sg15
I9
sg16
I676
sg17
I307
sg18
I2165
sg19
I9568
sg20
I178
sg21
I147
sg22
I73
sg23
I1
sg24
I6787
sg25
I121317
sg26
I12
sg27
I12974
ssg28
(dp2021
g23
I154050
sg22
I73
sg15
I9
sg21
I147
sssS'Human,Roadmap,S,CD3_primary_cells'
p2022
(dp2023
g3
(dp2024
g5
I1040
sg6
I144924
ssg7
(dp2025
g9
I5548
sg10
I136412
sg11
I4004
ssg12
(dp2026
g14
I12
sg15
I6
sg16
I555
sg17
I201
sg18
I1756
sg19
I7271
sg20
I131
sg21
I114
sg22
I57
sg23
I0
sg24
I4510
sg25
I119264
sg26
I11
sg27
I12041
ssg28
(dp2027
g23
I145787
sg22
I57
sg15
I6
sg21
I114
sssS'Human,Encode,S,NHEM.f_M2'
p2028
(dp2029
g3
(dp2030
g5
I692
sg6
I43739
ssg7
(dp2031
g9
I2303
sg10
I40469
sg11
I1659
ssg12
(dp2032
g14
I9
sg15
I3
sg16
I281
sg17
I88
sg18
I726
sg19
I5697
sg20
I29
sg21
I57
sg22
I25
sg23
I1
sg24
I1717
sg25
I31908
sg26
I3
sg27
I3875
ssg28
(dp2033
g23
I44346
sg22
I25
sg15
I3
sg21
I57
sssS'Human,CCLE,P,CCLE-BLCA'
p2034
(dp2035
g3
(dp2036
g5
I664
sg6
I51116
ssg7
(dp2037
g9
I1069
sg10
I49844
sg11
I867
ssg12
(dp2038
g14
I8
sg15
I7
sg16
I445
sg17
I226
sg18
I1677
sg19
I8838
sg20
I101
sg21
I96
sg22
I41
sg23
I0
sg24
I2520
sg25
I31716
sg26
I10
sg27
I6068
ssg28
(dp2039
g23
I51636
sg22
I41
sg15
I7
sg21
I96
sssS'Human,Encode,S,HUVEC'
p2040
(dp2041
g3
(dp2042
g5
I1037
sg6
I140689
ssg7
(dp2043
g9
I5436
sg10
I132074
sg11
I4216
ssg12
(dp2044
g14
I6
sg15
I6
sg16
I535
sg17
I290
sg18
I1890
sg19
I7368
sg20
I222
sg21
I187
sg22
I75
sg23
I3
sg24
I5926
sg25
I111597
sg26
I11
sg27
I13585
ssg28
(dp2045
g23
I141458
sg22
I75
sg15
I6
sg21
I187
sssS'Human,HumanBodyMap,G,prostate'
p2046
(dp2047
g3
(dp2048
g5
I0
sg6
I7270
ssg7
(dp2049
g9
I231
sg10
I6756
sg11
I283
ssg12
(dp2050
g14
I3
sg15
I1
sg16
I123
sg17
I38
sg18
I329
sg19
I3497
sg20
I13
sg21
I26
sg22
I13
sg23
I0
sg24
I365
sg25
I2073
sg26
I2
sg27
I778
ssg28
(dp2051
g23
I7230
sg22
I13
sg15
I1
sg21
I26
sssS'Human,Encode,P,hMNC-PB'
p2052
(dp2053
g3
(dp2054
g5
I593
sg6
I66187
ssg7
(dp2055
g9
I2921
sg10
I61630
sg11
I2229
ssg12
(dp2056
g14
I6
sg15
I4
sg16
I194
sg17
I97
sg18
I766
sg19
I3413
sg20
I64
sg21
I47
sg22
I21
sg23
I0
sg24
I1729
sg25
I56365
sg26
I5
sg27
I4064
ssg28
(dp2057
g23
I66708
sg22
I21
sg15
I4
sg21
I47
sssS'Human,Encode,D,hMSC-AT'
p2058
(dp2059
g3
(dp2060
g5
I283
sg6
I10859
ssg7
(dp2061
g9
I0
sg10
I11142
sg11
I0
ssg12
(dp2062
g14
I0
sg15
I1
sg16
I45
sg17
I18
sg18
I119
sg19
I859
sg20
I19
sg21
I4
sg22
I1
sg23
I0
sg24
I441
sg25
I8587
sg26
I0
sg27
I1041
ssg28
(dp2063
g23
I11136
sg22
I1
sg15
I1
sg21
I4
sssS'Human,Encode,D,HOB'
p2064
(dp2065
g3
(dp2066
g5
I269
sg6
I11746
ssg7
(dp2067
g9
I0
sg10
I12015
sg11
I0
ssg12
(dp2068
g14
I0
sg15
I0
sg16
I49
sg17
I22
sg18
I122
sg19
I903
sg20
I18
sg21
I5
sg22
I4
sg23
I0
sg24
I468
sg25
I9305
sg26
I0
sg27
I1115
ssg28
(dp2069
g23
I12006
sg22
I4
sg15
I0
sg21
I5
sssS'Human,CCLE,S,CCLE-OV'
p2070
(dp2071
g3
(dp2072
g5
I893
sg6
I84149
ssg7
(dp2073
g9
I2423
sg10
I77848
sg11
I4771
ssg12
(dp2074
g14
I13
sg15
I10
sg16
I756
sg17
I454
sg18
I2834
sg19
I14547
sg20
I196
sg21
I795
sg22
I331
sg23
I7
sg24
I4448
sg25
I50337
sg26
I11
sg27
I10253
ssg28
(dp2075
g23
I83906
sg22
I331
sg15
I10
sg21
I795
sssS'Human,Roadmap,S,lung'
p2076
(dp2077
g3
(dp2078
g5
I1071
sg6
I86478
ssg7
(dp2079
g9
I2190
sg10
I83310
sg11
I2049
ssg12
(dp2080
g14
I5
sg15
I8
sg16
I720
sg17
I263
sg18
I2293
sg19
I12684
sg20
I139
sg21
I238
sg22
I84
sg23
I10
sg24
I3962
sg25
I57806
sg26
I12
sg27
I9284
ssg28
(dp2081
g23
I87219
sg22
I84
sg15
I8
sg21
I238
sssS'Human,Encode,D,HepG2'
p2082
(dp2083
g3
(dp2084
g5
I472
sg6
I23524
ssg7
(dp2085
g9
I0
sg10
I23996
sg11
I0
ssg12
(dp2086
g14
I0
sg15
I1
sg16
I97
sg17
I45
sg18
I278
sg19
I1212
sg20
I57
sg21
I10
sg22
I4
sg23
I0
sg24
I1124
sg25
I18379
sg26
I0
sg27
I2786
ssg28
(dp2087
g23
I23981
sg22
I4
sg15
I1
sg21
I10
sssS'Human,SEQC,D,ILM_COH_A'
p2088
(dp2089
g3
(dp2090
g5
I271
sg6
I18361
ssg7
(dp2091
g9
I1
sg10
I18631
sg11
I0
ssg12
(dp2092
g14
I3
sg15
I2
sg16
I125
sg17
I68
sg18
I493
sg19
I1983
sg20
I44
sg21
I24
sg22
I9
sg23
I0
sg24
I1053
sg25
I12384
sg26
I1
sg27
I2438
ssg28
(dp2093
g23
I18597
sg22
I9
sg15
I2
sg21
I24
sssS'Human,SEQC,D,ILM_COH_C'
p2094
(dp2095
g3
(dp2096
g5
I291
sg6
I20509
ssg7
(dp2097
g9
I3
sg10
I20797
sg11
I0
ssg12
(dp2098
g14
I2
sg15
I3
sg16
I160
sg17
I82
sg18
I578
sg19
I2304
sg20
I46
sg21
I29
sg22
I10
sg23
I0
sg24
I1123
sg25
I13718
sg26
I3
sg27
I2733
ssg28
(dp2099
g23
I20758
sg22
I10
sg15
I3
sg21
I29
sssS'Human,SEQC,D,ILM_COH_B'
p2100
(dp2101
g3
(dp2102
g5
I322
sg6
I26471
ssg7
(dp2103
g9
I2
sg10
I26791
sg11
I0
ssg12
(dp2104
g14
I4
sg15
I4
sg16
I190
sg17
I111
sg18
I709
sg19
I2761
sg20
I62
sg21
I44
sg22
I18
sg23
I2
sg24
I1455
sg25
I17949
sg26
I4
sg27
I3465
ssg28
(dp2105
g23
I26727
sg22
I18
sg15
I4
sg21
I44
sssS'Human,SEQC,S,ILM_NVS_C'
p2106
(dp2107
g3
(dp2108
g5
I1531
sg6
I146679
ssg7
(dp2109
g9
I3162
sg10
I142038
sg11
I3010
ssg12
(dp2110
g14
I26
sg15
I16
sg16
I1484
sg17
I655
sg18
I5778
sg19
I26966
sg20
I360
sg21
I360
sg22
I162
sg23
I4
sg24
I8299
sg25
I84991
sg26
I24
sg27
I18975
ssg28
(dp2111
g23
I147672
sg22
I162
sg15
I16
sg21
I360
sssS'Human,SEQC,D,ILM_COH_D'
p2112
(dp2113
g3
(dp2114
g5
I332
sg6
I25558
ssg7
(dp2115
g9
I3
sg10
I25887
sg11
I0
ssg12
(dp2116
g14
I4
sg15
I2
sg16
I191
sg17
I98
sg18
I711
sg19
I2716
sg20
I61
sg21
I45
sg22
I10
sg23
I1
sg24
I1426
sg25
I17203
sg26
I1
sg27
I3412
ssg28
(dp2117
g23
I25833
sg22
I10
sg15
I2
sg21
I45
sssS'Human,SEQC,S,ILM_NVS_A'
p2118
(dp2119
g3
(dp2120
g5
I1423
sg6
I131391
ssg7
(dp2121
g9
I2709
sg10
I127681
sg11
I2424
ssg12
(dp2122
g14
I26
sg15
I14
sg16
I1291
sg17
I552
sg18
I5043
sg19
I23375
sg20
I327
sg21
I301
sg22
I162
sg23
I2
sg24
I7358
sg25
I77072
sg26
I16
sg27
I17203
ssg28
(dp2123
g23
I132337
sg22
I162
sg15
I14
sg21
I301
sssS'Human,SEQC,S,ILM_CNL_D'
p2124
(dp2125
g3
(dp2126
g5
I1710
sg6
I170158
ssg7
(dp2127
g9
I3619
sg10
I164572
sg11
I3677
ssg12
(dp2128
g14
I35
sg15
I18
sg16
I1665
sg17
I770
sg18
I6661
sg19
I32703
sg20
I364
sg21
I432
sg22
I207
sg23
I4
sg24
I9332
sg25
I97885
sg26
I32
sg27
I21653
ssg28
(dp2129
g23
I171211
sg22
I207
sg15
I18
sg21
I432
sssS'Human,SEQC,S,ILM_CNL_A'
p2130
(dp2131
g3
(dp2132
g5
I1423
sg6
I134977
ssg7
(dp2133
g9
I2585
sg10
I131501
sg11
I2314
ssg12
(dp2134
g14
I26
sg15
I19
sg16
I1314
sg17
I547
sg18
I5054
sg19
I24324
sg20
I296
sg21
I334
sg22
I159
sg23
I2
sg24
I7599
sg25
I79062
sg26
I22
sg27
I17565
ssg28
(dp2135
g23
I135888
sg22
I159
sg15
I19
sg21
I334
sssS'Human,Encode,D,hMNC-PB'
p2136
(dp2137
g3
(dp2138
g5
I196
sg6
I9022
ssg7
(dp2139
g9
I0
sg10
I9218
sg11
I0
ssg12
(dp2140
g14
I0
sg15
I0
sg16
I24
sg17
I10
sg18
I77
sg19
I402
sg20
I6
sg21
I2
sg22
I4
sg23
I0
sg24
I219
sg25
I7899
sg26
I0
sg27
I575
ssg28
(dp2141
g23
I9212
sg22
I4
sg15
I0
sg21
I2
sssS'Human,SEQC,S,ILM_CNL_B'
p2142
(dp2143
g3
(dp2144
g5
I1675
sg6
I170609
ssg7
(dp2145
g9
I3578
sg10
I164943
sg11
I3763
ssg12
(dp2146
g14
I33
sg15
I18
sg16
I1729
sg17
I758
sg18
I6694
sg19
I33928
sg20
I371
sg21
I415
sg22
I223
sg23
I5
sg24
I9398
sg25
I96923
sg26
I26
sg27
I21648
ssg28
(dp2147
g23
I171628
sg22
I223
sg15
I18
sg21
I415
sssS'Human,Roadmap,S,heart_aorta'
p2148
(dp2149
g3
(dp2150
g5
I914
sg6
I77282
ssg7
(dp2151
g9
I915
sg10
I76371
sg11
I910
ssg12
(dp2152
g14
I6
sg15
I1
sg16
I491
sg17
I211
sg18
I1946
sg19
I9108
sg20
I116
sg21
I112
sg22
I45
sg23
I1
sg24
I3514
sg25
I54376
sg26
I12
sg27
I8221
ssg28
(dp2153
g23
I78038
sg22
I45
sg15
I1
sg21
I112
sssS'Human,CCLE,P,CCLE-CESC'
p2154
(dp2155
g3
(dp2156
g5
I759
sg6
I75277
ssg7
(dp2157
g9
I1436
sg10
I73429
sg11
I1171
ssg12
(dp2158
g14
I13
sg15
I6
sg16
I590
sg17
I301
sg18
I2069
sg19
I10391
sg20
I161
sg21
I145
sg22
I63
sg23
I1
sg24
I3703
sg25
I50225
sg26
I9
sg27
I8320
ssg28
(dp2159
g23
I75822
sg22
I63
sg15
I6
sg21
I145
sssS'Human,SEQC,D,ILM_NYG_D'
p2160
(dp2161
g3
(dp2162
g5
I272
sg6
I20914
ssg7
(dp2163
g9
I2
sg10
I21184
sg11
I0
ssg12
(dp2164
g14
I2
sg15
I6
sg16
I198
sg17
I83
sg18
I636
sg19
I2466
sg20
I61
sg21
I34
sg22
I11
sg23
I1
sg24
I1208
sg25
I13654
sg26
I3
sg27
I2812
ssg28
(dp2165
g23
I21135
sg22
I11
sg15
I6
sg21
I34
sssS'Human,SEQC,D,ILM_NYG_A'
p2166
(dp2167
g3
(dp2168
g5
I231
sg6
I14411
ssg7
(dp2169
g9
I1
sg10
I14641
sg11
I0
ssg12
(dp2170
g14
I2
sg15
I2
sg16
I115
sg17
I64
sg18
I475
sg19
I1742
sg20
I37
sg21
I27
sg22
I8
sg23
I1
sg24
I855
sg25
I9306
sg26
I1
sg27
I2000
ssg28
(dp2171
g23
I14605
sg22
I8
sg15
I2
sg21
I27
sssS'Human,SEQC,D,ILM_NYG_C'
p2172
(dp2173
g3
(dp2174
g5
I255
sg6
I17232
ssg7
(dp2175
g9
I2
sg10
I17485
sg11
I0
ssg12
(dp2176
g14
I5
sg15
I3
sg16
I142
sg17
I80
sg18
I555
sg19
I2101
sg20
I47
sg21
I29
sg22
I9
sg23
I0
sg24
I975
sg25
I11175
sg26
I1
sg27
I2357
ssg28
(dp2177
g23
I17446
sg22
I9
sg15
I3
sg21
I29
sssS'Human,SEQC,D,ILM_NYG_B'
p2178
(dp2179
g3
(dp2180
g5
I269
sg6
I20512
ssg7
(dp2181
g9
I3
sg10
I20778
sg11
I0
ssg12
(dp2182
g14
I3
sg15
I2
sg16
I181
sg17
I100
sg18
I651
sg19
I2498
sg20
I47
sg21
I41
sg22
I14
sg23
I3
sg24
I1258
sg25
I13094
sg26
I2
sg27
I2872
ssg28
(dp2183
g23
I20724
sg22
I14
sg15
I2
sg21
I41
sssS'Human,SEQC,D,ILM_BGI_A'
p2184
(dp2185
g3
(dp2186
g5
I383
sg6
I33768
ssg7
(dp2187
g9
I2
sg10
I34149
sg11
I0
ssg12
(dp2188
g14
I3
sg15
I4
sg16
I213
sg17
I107
sg18
I800
sg19
I2865
sg20
I78
sg21
I43
sg22
I18
sg23
I0
sg24
I1948
sg25
I23666
sg26
I2
sg27
I4396
ssg28
(dp2189
g23
I34086
sg22
I18
sg15
I4
sg21
I43
sssS'Human,Encode,P,HAoAF'
p2190
(dp2191
g3
(dp2192
g5
I533
sg6
I50448
ssg7
(dp2193
g9
I2622
sg10
I46661
sg11
I1698
ssg12
(dp2194
g14
I5
sg15
I2
sg16
I224
sg17
I98
sg18
I815
sg19
I4149
sg20
I65
sg21
I46
sg22
I23
sg23
I0
sg24
I2419
sg25
I37890
sg26
I3
sg27
I5227
ssg28
(dp2195
g23
I50910
sg22
I23
sg15
I2
sg21
I46
sssS'Human,Roadmap,P,kidney'
p2196
(dp2197
g3
(dp2198
g5
I350
sg6
I7272
ssg7
(dp2199
g9
I201
sg10
I7226
sg11
I195
ssg12
(dp2200
g14
I1
sg15
I0
sg16
I134
sg17
I25
sg18
I348
sg19
I3133
sg20
I18
sg21
I23
sg22
I6
sg23
I0
sg24
I422
sg25
I2524
sg26
I2
sg27
I980
ssg28
(dp2201
g23
I7593
sg22
I6
sg15
I0
sg21
I23
sssS'Human,Roadmap,G,CD4_primary_cells'
p2202
(dp2203
g3
(dp2204
g5
I0
sg6
I116080
ssg7
(dp2205
g9
I5288
sg10
I106801
sg11
I3991
ssg12
(dp2206
g14
I13
sg15
I7
sg16
I648
sg17
I274
sg18
I1858
sg19
I8279
sg20
I218
sg21
I133
sg22
I52
sg23
I2
sg24
I5269
sg25
I89387
sg26
I14
sg27
I9881
ssg28
(dp2207
g23
I115888
sg22
I52
sg15
I7
sg21
I133
sssS'Human,Roadmap,G,H1_derived_neuronal_progenitor_cultured_cells'
p2208
(dp2209
g3
(dp2210
g5
I0
sg6
I67804
ssg7
(dp2211
g9
I1600
sg10
I64979
sg11
I1225
ssg12
(dp2212
g14
I11
sg15
I6
sg16
I518
sg17
I234
sg18
I1465
sg19
I6377
sg20
I148
sg21
I84
sg22
I38
sg23
I1
sg24
I4297
sg25
I47371
sg26
I8
sg27
I7221
ssg28
(dp2213
g23
I67676
sg22
I38
sg15
I6
sg21
I84
sssS'Human,Encode,P,A549'
p2214
(dp2215
g3
(dp2216
g5
I1133
sg6
I158437
ssg7
(dp2217
g9
I4247
sg10
I151881
sg11
I3442
ssg12
(dp2218
g14
I8
sg15
I7
sg16
I790
sg17
I318
sg18
I2370
sg19
I9200
sg20
I320
sg21
I127
sg22
I67
sg23
I2
sg24
I7764
sg25
I122602
sg26
I13
sg27
I15949
ssg28
(dp2219
g23
I159369
sg22
I67
sg15
I7
sg21
I127
sssS'Human,Encode,P,HMEpC'
p2220
(dp2221
g3
(dp2222
g5
I283
sg6
I17297
ssg7
(dp2223
g9
I931
sg10
I16048
sg11
I601
ssg12
(dp2224
g14
I4
sg15
I2
sg16
I90
sg17
I47
sg18
I320
sg19
I2258
sg20
I20
sg21
I24
sg22
I10
sg23
I1
sg24
I694
sg25
I12338
sg26
I2
sg27
I1765
ssg28
(dp2225
g23
I17544
sg22
I10
sg15
I2
sg21
I24
sssS'Human,Roadmap,D,spleen'
p2226
(dp2227
g3
(dp2228
g5
I216
sg6
I22212
ssg7
(dp2229
g9
I3
sg10
I22425
sg11
I0
ssg12
(dp2230
g14
I1
sg15
I1
sg16
I133
sg17
I50
sg18
I389
sg19
I1663
sg20
I33
sg21
I19
sg22
I8
sg23
I0
sg24
I953
sg25
I16818
sg26
I2
sg27
I2348
ssg28
(dp2231
g23
I22400
sg22
I8
sg15
I1
sg21
I19
sssS'Human,SEQC,D,ILM_BGI_D'
p2232
(dp2233
g3
(dp2234
g5
I436
sg6
I39969
ssg7
(dp2235
g9
I8
sg10
I40397
sg11
I0
ssg12
(dp2236
g14
I4
sg15
I4
sg16
I256
sg17
I127
sg18
I1035
sg19
I3578
sg20
I88
sg21
I57
sg22
I18
sg23
I0
sg24
I2277
sg25
I27751
sg26
I4
sg27
I5195
ssg28
(dp2237
g23
I40326
sg22
I18
sg15
I4
sg21
I57
sssS'Human,Roadmap,P,CD14_primary_cells'
p2238
(dp2239
g3
(dp2240
g5
I700
sg6
I86758
ssg7
(dp2241
g9
I3176
sg10
I81606
sg11
I2676
ssg12
(dp2242
g14
I7
sg15
I6
sg16
I347
sg17
I117
sg18
I1056
sg19
I5382
sg20
I62
sg21
I71
sg22
I29
sg23
I1
sg24
I2465
sg25
I71797
sg26
I5
sg27
I6088
ssg28
(dp2243
g23
I87352
sg22
I29
sg15
I6
sg21
I71
sssS'Human,CCLE,S,CCLE-PRAD'
p2244
(dp2245
g3
(dp2246
g5
I438
sg6
I30271
ssg7
(dp2247
g9
I874
sg10
I27775
sg11
I2060
ssg12
(dp2248
g14
I8
sg15
I3
sg16
I328
sg17
I193
sg18
I1158
sg19
I6323
sg20
I80
sg21
I417
sg22
I131
sg23
I3
sg24
I1683
sg25
I16468
sg26
I6
sg27
I3883
ssg28
(dp2249
g23
I30158
sg22
I131
sg15
I3
sg21
I417
sssS'Human,Encode,S,GM12878'
p2250
(dp2251
g3
(dp2252
g5
I1770
sg6
I267129
ssg7
(dp2253
g9
I11973
sg10
I249914
sg11
I7012
ssg12
(dp2254
g14
I19
sg15
I10
sg16
I785
sg17
I378
sg18
I3232
sg19
I10936
sg20
I391
sg21
I188
sg22
I96
sg23
I1
sg24
I11455
sg25
I211268
sg26
I21
sg27
I30071
ssg28
(dp2255
g23
I268605
sg22
I96
sg15
I10
sg21
I188
sssS'Human,Encode,S,AG04450'
p2256
(dp2257
g3
(dp2258
g5
I607
sg6
I51724
ssg7
(dp2259
g9
I2527
sg10
I48048
sg11
I1756
ssg12
(dp2260
g14
I5
sg15
I4
sg16
I346
sg17
I146
sg18
I1073
sg19
I6183
sg20
I85
sg21
I75
sg22
I36
sg23
I1
sg24
I2234
sg25
I36735
sg26
I8
sg27
I5381
ssg28
(dp2261
g23
I52216
sg22
I36
sg15
I4
sg21
I75
sssS'Human,Roadmap,S,kidney'
p2262
(dp2263
g3
(dp2264
g5
I350
sg6
I7253
ssg7
(dp2265
g9
I200
sg10
I7193
sg11
I210
ssg12
(dp2266
g14
I1
sg15
I0
sg16
I134
sg17
I28
sg18
I348
sg19
I3142
sg20
I18
sg21
I28
sg22
I8
sg23
I0
sg24
I418
sg25
I2500
sg26
I2
sg27
I970
ssg28
(dp2267
g23
I7567
sg22
I8
sg15
I0
sg21
I28
sssS'Human,Roadmap,D,adipose'
p2268
(dp2269
g3
(dp2270
g5
I108
sg6
I6069
ssg7
(dp2271
g9
I0
sg10
I6177
sg11
I0
ssg12
(dp2272
g14
I1
sg15
I0
sg16
I66
sg17
I37
sg18
I193
sg19
I1267
sg20
I15
sg21
I5
sg22
I0
sg23
I0
sg24
I313
sg25
I3561
sg26
I0
sg27
I714
ssg28
(dp2273
g23
I6172
sg22
I0
sg15
I0
sg21
I5
sssS'Human,Roadmap,P,heart_right_ventricle'
p2274
(dp2275
g3
(dp2276
g5
I615
sg6
I41506
ssg7
(dp2277
g9
I953
sg10
I40193
sg11
I975
ssg12
(dp2278
g14
I6
sg15
I5
sg16
I396
sg17
I155
sg18
I1156
sg19
I5914
sg20
I67
sg21
I85
sg22
I38
sg23
I1
sg24
I2115
sg25
I27281
sg26
I5
sg27
I4867
ssg28
(dp2279
g23
I41993
sg22
I38
sg15
I5
sg21
I85
sssS'Human,Encode,D,CD20+'
p2280
(dp2281
g3
(dp2282
g5
I303
sg6
I16559
ssg7
(dp2283
g9
I2
sg10
I16860
sg11
I0
ssg12
(dp2284
g14
I0
sg15
I1
sg16
I74
sg17
I37
sg18
I209
sg19
I944
sg20
I28
sg21
I14
sg22
I5
sg23
I0
sg24
I556
sg25
I13453
sg26
I0
sg27
I1538
ssg28
(dp2285
g23
I16842
sg22
I5
sg15
I1
sg21
I14
sssS'Human,Roadmap,S,bladder'
p2286
(dp2287
g3
(dp2288
g5
I519
sg6
I22731
ssg7
(dp2289
g9
I636
sg10
I21973
sg11
I641
ssg12
(dp2290
g14
I6
sg15
I5
sg16
I341
sg17
I144
sg18
I1133
sg19
I6680
sg20
I58
sg21
I115
sg22
I43
sg23
I1
sg24
I1424
sg25
I10083
sg26
I4
sg27
I3194
ssg28
(dp2291
g23
I23087
sg22
I43
sg15
I5
sg21
I115
sssS'Human,CCLE,G,CCLE-CESC'
p2292
(dp2293
g3
(dp2294
g5
I0
sg6
I82308
ssg7
(dp2295
g9
I3422
sg10
I71869
sg11
I7017
ssg12
(dp2296
g14
I54
sg15
I8
sg16
I678
sg17
I479
sg18
I2219
sg19
I11874
sg20
I217
sg21
I1192
sg22
I386
sg23
I8
sg24
I4404
sg25
I52655
sg26
I10
sg27
I8074
ssg28
(dp2297
g23
I80722
sg22
I386
sg15
I8
sg21
I1192
sssS'Human,Roadmap,P,spleen'
p2298
(dp2299
g3
(dp2300
g5
I1433
sg6
I168306
ssg7
(dp2301
g9
I2363
sg10
I165067
sg11
I2309
ssg12
(dp2302
g14
I15
sg15
I9
sg16
I976
sg17
I342
sg18
I3331
sg19
I13669
sg20
I249
sg21
I223
sg22
I117
sg23
I1
sg24
I7628
sg25
I125130
sg26
I20
sg27
I17977
ssg28
(dp2303
g23
I169390
sg22
I117
sg15
I9
sg21
I223
sssS'Human,ABRF,P,ABRF-ILMN-M-AH'
p2304
(dp2305
g3
(dp2306
g5
I720
sg6
I67937
ssg7
(dp2307
g9
I1624
sg10
I65642
sg11
I1391
ssg12
(dp2308
g14
I7
sg15
I4
sg16
I242
sg17
I101
sg18
I938
sg19
I3937
sg20
I74
sg21
I48
sg22
I28
sg23
I1
sg24
I2647
sg25
I54498
sg26
I3
sg27
I6115
ssg28
(dp2309
g23
I68577
sg22
I28
sg15
I4
sg21
I48
sssS'Human,SEQC,D,ILM_NVS_D'
p2310
(dp2311
g3
(dp2312
g5
I530
sg6
I45678
ssg7
(dp2313
g9
I2
sg10
I46206
sg11
I0
ssg12
(dp2314
g14
I3
sg15
I6
sg16
I320
sg17
I153
sg18
I1093
sg19
I3655
sg20
I102
sg21
I70
sg22
I24
sg23
I1
sg24
I2668
sg25
I32060
sg26
I1
sg27
I6038
ssg28
(dp2315
g23
I46108
sg22
I24
sg15
I6
sg21
I70
sssS'Human,HumanBodyMap,G,adrenal'
p2316
(dp2317
g3
(dp2318
g5
I0
sg6
I9854
ssg7
(dp2319
g9
I355
sg10
I9087
sg11
I412
ssg12
(dp2320
g14
I1
sg15
I1
sg16
I127
sg17
I34
sg18
I341
sg19
I2881
sg20
I20
sg21
I75
sg22
I28
sg23
I7
sg24
I390
sg25
I5033
sg26
I2
sg27
I907
ssg28
(dp2321
g23
I9750
sg22
I28
sg15
I1
sg21
I75
sssS'Human,Encode,P,HWP'
p2322
(dp2323
g3
(dp2324
g5
I535
sg6
I56762
ssg7
(dp2325
g9
I2315
sg10
I53260
sg11
I1722
ssg12
(dp2326
g14
I4
sg15
I4
sg16
I214
sg17
I86
sg18
I671
sg19
I3683
sg20
I65
sg21
I45
sg22
I23
sg23
I0
sg24
I2487
sg25
I44866
sg26
I5
sg27
I5131
ssg28
(dp2327
g23
I57225
sg22
I23
sg15
I4
sg21
I45
sssS'Human,SEQC,D,ILM_NVS_A'
p2328
(dp2329
g3
(dp2330
g5
I401
sg6
I31168
ssg7
(dp2331
g9
I2
sg10
I31566
sg11
I1
ssg12
(dp2332
g14
I1
sg15
I3
sg16
I209
sg17
I88
sg18
I782
sg19
I2691
sg20
I75
sg21
I34
sg22
I20
sg23
I0
sg24
I1845
sg25
I21638
sg26
I1
sg27
I4175
ssg28
(dp2333
g23
I31512
sg22
I20
sg15
I3
sg21
I34
sssS'Human,SEQC,D,ILM_NVS_B'
p2334
(dp2335
g3
(dp2336
g5
I570
sg6
I49334
ssg7
(dp2337
g9
I7
sg10
I49896
sg11
I1
ssg12
(dp2338
g14
I4
sg15
I6
sg16
I327
sg17
I160
sg18
I1157
sg19
I3843
sg20
I102
sg21
I64
sg22
I27
sg23
I3
sg24
I2805
sg25
I34921
sg26
I4
sg27
I6461
ssg28
(dp2339
g23
I49807
sg22
I27
sg15
I6
sg21
I64
sssS'Human,SEQC,D,ILM_NVS_C'
p2340
(dp2341
g3
(dp2342
g5
I448
sg6
I35474
ssg7
(dp2343
g9
I3
sg10
I35919
sg11
I0
ssg12
(dp2344
g14
I3
sg15
I4
sg16
I252
sg17
I121
sg18
I898
sg19
I3123
sg20
I94
sg21
I54
sg22
I20
sg23
I1
sg24
I2024
sg25
I24493
sg26
I2
sg27
I4819
ssg28
(dp2345
g23
I35844
sg22
I20
sg15
I4
sg21
I54
sssS'Human,Encode,P,HPC-PL'
p2346
(dp2347
g3
(dp2348
g5
I582
sg6
I50432
ssg7
(dp2349
g9
I2176
sg10
I47101
sg11
I1737
ssg12
(dp2350
g14
I5
sg15
I4
sg16
I233
sg17
I87
sg18
I703
sg19
I4924
sg20
I59
sg21
I49
sg22
I24
sg23
I0
sg24
I1997
sg25
I38171
sg26
I5
sg27
I4736
ssg28
(dp2351
g23
I50937
sg22
I24
sg15
I4
sg21
I49
sssS'Human,Roadmap,S,H1_cell_line'
p2352
(dp2353
g3
(dp2354
g5
I708
sg6
I65488
ssg7
(dp2355
g9
I1548
sg10
I63583
sg11
I1065
ssg12
(dp2356
g14
I9
sg15
I7
sg16
I496
sg17
I174
sg18
I1485
sg19
I7390
sg20
I119
sg21
I84
sg22
I32
sg23
I0
sg24
I3570
sg25
I44750
sg26
I8
sg27
I8044
ssg28
(dp2357
g23
I66073
sg22
I32
sg15
I7
sg21
I84
sssS'Human,Roadmap,D,sigmoid_colon'
p2358
(dp2359
g3
(dp2360
g5
I159
sg6
I10745
ssg7
(dp2361
g9
I0
sg10
I10904
sg11
I0
ssg12
(dp2362
g14
I0
sg15
I0
sg16
I92
sg17
I30
sg18
I210
sg19
I1316
sg20
I13
sg21
I8
sg22
I2
sg23
I0
sg24
I486
sg25
I7566
sg26
I0
sg27
I1176
ssg28
(dp2363
g23
I10894
sg22
I2
sg15
I0
sg21
I8
sssS'Human,SEQC,D,ILM_MAY_A'
p2364
(dp2365
g3
(dp2366
g5
I355
sg6
I25880
ssg7
(dp2367
g9
I2
sg10
I26233
sg11
I0
ssg12
(dp2368
g14
I3
sg15
I4
sg16
I186
sg17
I91
sg18
I653
sg19
I2574
sg20
I69
sg21
I39
sg22
I19
sg23
I1
sg24
I1414
sg25
I17741
sg26
I2
sg27
I3430
ssg28
(dp2369
g23
I26173
sg22
I19
sg15
I4
sg21
I39
sssS'Human,SEQC,D,ILM_MAY_B'
p2370
(dp2371
g3
(dp2372
g5
I464
sg6
I39059
ssg7
(dp2373
g9
I6
sg10
I39517
sg11
I0
ssg12
(dp2374
g14
I4
sg15
I3
sg16
I295
sg17
I133
sg18
I962
sg19
I3613
sg20
I75
sg21
I62
sg22
I15
sg23
I2
sg24
I2222
sg25
I27033
sg26
I3
sg27
I5090
ssg28
(dp2375
g23
I39443
sg22
I15
sg15
I3
sg21
I62
sssS'Human,SEQC,D,ILM_MAY_C'
p2376
(dp2377
g3
(dp2378
g5
I357
sg6
I26360
ssg7
(dp2379
g9
I2
sg10
I26715
sg11
I0
ssg12
(dp2380
g14
I3
sg15
I3
sg16
I186
sg17
I88
sg18
I699
sg19
I2848
sg20
I56
sg21
I44
sg22
I11
sg23
I1
sg24
I1492
sg25
I17803
sg26
I2
sg27
I3474
ssg28
(dp2381
g23
I26659
sg22
I11
sg15
I3
sg21
I44
sssS'Human,SEQC,D,ILM_MAY_D'
p2382
(dp2383
g3
(dp2384
g5
I391
sg6
I31880
ssg7
(dp2385
g9
I4
sg10
I32267
sg11
I0
ssg12
(dp2386
g14
I3
sg15
I2
sg16
I228
sg17
I111
sg18
I795
sg19
I3238
sg20
I59
sg21
I54
sg22
I15
sg23
I2
sg24
I1745
sg25
I21864
sg26
I4
sg27
I4139
ssg28
(dp2387
g23
I32200
sg22
I15
sg15
I2
sg21
I54
sssS'Human,Roadmap,G,heart_aorta'
p2388
(dp2389
g3
(dp2390
g5
I0
sg6
I76169
ssg7
(dp2391
g9
I935
sg10
I74343
sg11
I891
ssg12
(dp2392
g14
I6
sg15
I2
sg16
I485
sg17
I204
sg18
I1623
sg19
I8170
sg20
I111
sg21
I108
sg22
I40
sg23
I2
sg24
I3477
sg25
I54953
sg26
I13
sg27
I6940
ssg28
(dp2393
g23
I76019
sg22
I40
sg15
I2
sg21
I108
sssS'Human,Roadmap,S,esophagus'
p2394
(dp2395
g3
(dp2396
g5
I811
sg6
I72647
ssg7
(dp2397
g9
I1588
sg10
I70474
sg11
I1396
ssg12
(dp2398
g14
I12
sg15
I4
sg16
I493
sg17
I232
sg18
I1632
sg19
I7770
sg20
I131
sg21
I121
sg22
I60
sg23
I0
sg24
I3309
sg25
I52079
sg26
I9
sg27
I7567
ssg28
(dp2399
g23
I73273
sg22
I60
sg15
I4
sg21
I121
sssS'Human,Roadmap,P,CD3_primary_cells'
p2400
(dp2401
g3
(dp2402
g5
I1069
sg6
I156769
ssg7
(dp2403
g9
I5488
sg10
I148315
sg11
I4035
ssg12
(dp2404
g14
I12
sg15
I6
sg16
I589
sg17
I213
sg18
I1820
sg19
I7354
sg20
I137
sg21
I108
sg22
I55
sg23
I0
sg24
I4943
sg25
I129730
sg26
I12
sg27
I12824
ssg28
(dp2405
g23
I157669
sg22
I55
sg15
I6
sg21
I108
sssS'Human,ABRF,S,ABRF-ILMN-R-B'
p2406
(dp2407
g3
(dp2408
g5
I870
sg6
I81927
ssg7
(dp2409
g9
I2349
sg10
I78564
sg11
I1884
ssg12
(dp2410
g14
I12
sg15
I6
sg16
I380
sg17
I157
sg18
I1400
sg19
I6464
sg20
I87
sg21
I104
sg22
I45
sg23
I1
sg24
I3039
sg25
I63909
sg26
I8
sg27
I7148
ssg28
(dp2411
g23
I82642
sg22
I45
sg15
I6
sg21
I104
sssS'Human,ABRF,S,ABRF-ILMN-R-A'
p2412
(dp2413
g3
(dp2414
g5
I710
sg6
I65472
ssg7
(dp2415
g9
I1644
sg10
I63174
sg11
I1364
ssg12
(dp2416
g14
I5
sg15
I1
sg16
I256
sg17
I111
sg18
I1016
sg19
I4234
sg20
I76
sg21
I70
sg22
I35
sg23
I1
sg24
I2603
sg25
I51509
sg26
I3
sg27
I6246
ssg28
(dp2417
g23
I66076
sg22
I35
sg15
I1
sg21
I70
sssS'Human,SEQC,S,ILM_MAY_D'
p2418
(dp2419
g3
(dp2420
g5
I1528
sg6
I135545
ssg7
(dp2421
g9
I2963
sg10
I130865
sg11
I3245
ssg12
(dp2422
g14
I31
sg15
I14
sg16
I1416
sg17
I667
sg18
I5644
sg19
I29186
sg20
I293
sg21
I385
sg22
I183
sg23
I4
sg24
I7442
sg25
I74489
sg26
I21
sg27
I17204
ssg28
(dp2423
g23
I136491
sg22
I183
sg15
I14
sg21
I385
sssS'Human,SEQC,S,ILM_MAY_C'
p2424
(dp2425
g3
(dp2426
g5
I1405
sg6
I121689
ssg7
(dp2427
g9
I2676
sg10
I117565
sg11
I2853
ssg12
(dp2428
g14
I27
sg15
I11
sg16
I1196
sg17
I562
sg18
I4973
sg19
I25416
sg20
I296
sg21
I367
sg22
I172
sg23
I4
sg24
I6889
sg25
I67559
sg26
I20
sg27
I15516
ssg28
(dp2429
g23
I122544
sg22
I172
sg15
I11
sg21
I367
sssS'Human,SEQC,S,ILM_MAY_B'
p2430
(dp2431
g3
(dp2432
g5
I1570
sg6
I146373
ssg7
(dp2433
g9
I3356
sg10
I141125
sg11
I3462
ssg12
(dp2434
g14
I34
sg15
I18
sg16
I1566
sg17
I720
sg18
I6175
sg19
I31262
sg20
I322
sg21
I409
sg22
I177
sg23
I6
sg24
I7964
sg25
I80642
sg26
I26
sg27
I18518
ssg28
(dp2435
g23
I147339
sg22
I177
sg15
I18
sg21
I409
sssS'Human,SEQC,S,ILM_MAY_A'
p2436
(dp2437
g3
(dp2438
g5
I1333
sg6
I115384
ssg7
(dp2439
g9
I2445
sg10
I112030
sg11
I2242
ssg12
(dp2440
g14
I23
sg15
I16
sg16
I1203
sg17
I502
sg18
I4519
sg19
I22046
sg20
I268
sg21
I282
sg22
I156
sg23
I4
sg24
I6479
sg25
I66107
sg26
I19
sg27
I15015
ssg28
(dp2441
g23
I116263
sg22
I156
sg15
I16
sg21
I282
sssS'Human,Roadmap,D,CD8_primary_cells'
p2442
(dp2443
g3
(dp2444
g5
I244
sg6
I15425
ssg7
(dp2445
g9
I1
sg10
I15668
sg11
I0
ssg12
(dp2446
g14
I0
sg15
I0
sg16
I73
sg17
I31
sg18
I224
sg19
I1071
sg20
I30
sg21
I9
sg22
I7
sg23
I0
sg24
I648
sg25
I11964
sg26
I0
sg27
I1605
ssg28
(dp2447
g23
I15653
sg22
I7
sg15
I0
sg21
I9
sssS'Human,SEQC,P,ILM_NVS_A'
p2448
(dp2449
g3
(dp2450
g5
I1463
sg6
I151130
ssg7
(dp2451
g9
I3141
sg10
I146870
sg11
I2582
ssg12
(dp2452
g14
I26
sg15
I16
sg16
I1342
sg17
I580
sg18
I5364
sg19
I21687
sg20
I388
sg21
I273
sg22
I149
sg23
I3
sg24
I8912
sg25
I93443
sg26
I16
sg27
I20331
ssg28
(dp2453
g23
I152155
sg22
I149
sg15
I16
sg21
I273
sssS'Human,SEQC,P,ILM_NVS_B'
p2454
(dp2455
g3
(dp2456
g5
I1874
sg6
I228519
ssg7
(dp2457
g9
I5723
sg10
I219710
sg11
I4960
ssg12
(dp2458
g14
I33
sg15
I17
sg16
I2042
sg17
I865
sg18
I7961
sg19
I29730
sg20
I513
sg21
I399
sg22
I173
sg23
I6
sg24
I14049
sg25
I144106
sg26
I35
sg27
I30338
ssg28
(dp2459
g23
I229804
sg22
I173
sg15
I17
sg21
I399
sssS'Human,SEQC,P,ILM_NVS_C'
p2460
(dp2461
g3
(dp2462
g5
I1621
sg6
I179015
ssg7
(dp2463
g9
I4078
sg10
I173115
sg11
I3443
ssg12
(dp2464
g14
I27
sg15
I17
sg16
I1646
sg17
I697
sg18
I6390
sg19
I24945
sg20
I430
sg21
I340
sg22
I159
sg23
I6
sg24
I10890
sg25
I110959
sg26
I30
sg27
I23994
ssg28
(dp2465
g23
I180120
sg22
I159
sg15
I17
sg21
I340
sssS'Human,SEQC,P,ILM_NVS_D'
p2466
(dp2467
g3
(dp2468
g5
I1829
sg6
I222027
ssg7
(dp2469
g9
I5327
sg10
I213718
sg11
I4811
ssg12
(dp2470
g14
I38
sg15
I17
sg16
I1976
sg17
I874
sg18
I7742
sg19
I29339
sg20
I488
sg21
I416
sg22
I198
sg23
I6
sg24
I13730
sg25
I139186
sg26
I32
sg27
I29699
ssg28
(dp2471
g23
I223225
sg22
I198
sg15
I17
sg21
I416
sssS'Human,SEQC,G,ILM_NYG_C'
p2472
(dp2473
g3
(dp2474
g5
I0
sg6
I82002
ssg7
(dp2475
g9
I1632
sg10
I78589
sg11
I1781
ssg12
(dp2476
g14
I27
sg15
I11
sg16
I837
sg17
I461
sg18
I3098
sg19
I15692
sg20
I215
sg21
I200
sg22
I101
sg23
I0
sg24
I4857
sg25
I47368
sg26
I17
sg27
I9055
ssg28
(dp2477
g23
I81690
sg22
I101
sg15
I11
sg21
I200
sssS'Human,SEQC,G,ILM_NYG_A'
p2478
(dp2479
g3
(dp2480
g5
I0
sg6
I69574
ssg7
(dp2481
g9
I1274
sg10
I67031
sg11
I1269
ssg12
(dp2482
g14
I17
sg15
I9
sg16
I764
sg17
I346
sg18
I2640
sg19
I13347
sg20
I190
sg21
I177
sg22
I80
sg23
I1
sg24
I4162
sg25
I40124
sg26
I15
sg27
I7654
ssg28
(dp2483
g23
I69308
sg22
I80
sg15
I9
sg21
I177
sssS'Human,Encode,G,HeLa-S3'
p2484
(dp2485
g3
(dp2486
g5
I0
sg6
I135219
ssg7
(dp2487
g9
I4900
sg10
I126451
sg11
I3868
ssg12
(dp2488
g14
I13
sg15
I8
sg16
I723
sg17
I334
sg18
I2131
sg19
I9823
sg20
I276
sg21
I155
sg22
I67
sg23
I2
sg24
I6595
sg25
I101564
sg26
I13
sg27
I13487
ssg28
(dp2489
g23
I134989
sg22
I67
sg15
I8
sg21
I155
sssS'Human,ABRF,S,ABRF-ILMN-N-AH'
p2490
(dp2491
g3
(dp2492
g5
I354
sg6
I22408
ssg7
(dp2493
g9
I465
sg10
I21889
sg11
I408
ssg12
(dp2494
g14
I3
sg15
I1
sg16
I97
sg17
I38
sg18
I432
sg19
I2151
sg20
I28
sg21
I26
sg22
I11
sg23
I0
sg24
I880
sg25
I17061
sg26
I2
sg27
I2021
ssg28
(dp2495
g23
I22724
sg22
I11
sg15
I1
sg21
I26
sssS'Human,Encode,S,MCF-7'
p2496
(dp2497
g3
(dp2498
g5
I965
sg6
I131550
ssg7
(dp2499
g9
I3407
sg10
I126490
sg11
I2618
ssg12
(dp2500
g14
I9
sg15
I9
sg16
I644
sg17
I316
sg18
I2286
sg19
I7730
sg20
I285
sg21
I98
sg22
I55
sg23
I3
sg24
I6644
sg25
I100094
sg26
I16
sg27
I14293
ssg28
(dp2501
g23
I132353
sg22
I55
sg15
I9
sg21
I98
sssS'Human,ABRF,G,ABRF-ILMN-N-BR'
p2502
(dp2503
g3
(dp2504
g5
I0
sg6
I90933
ssg7
(dp2505
g9
I2137
sg10
I87033
sg11
I1763
ssg12
(dp2506
g14
I9
sg15
I8
sg16
I367
sg17
I163
sg18
I1266
sg19
I6035
sg20
I93
sg21
I101
sg22
I33
sg23
I1
sg24
I3426
sg25
I72720
sg26
I7
sg27
I6679
ssg28
(dp2507
g23
I90791
sg22
I33
sg15
I8
sg21
I101
sssS'Human,Roadmap,P,placenta_day113_F'
p2508
(dp2509
g3
(dp2510
g5
I515
sg6
I59488
ssg7
(dp2511
g9
I1472
sg10
I57351
sg11
I1180
ssg12
(dp2512
g14
I3
sg15
I5
sg16
I275
sg17
I107
sg18
I826
sg19
I4553
sg20
I47
sg21
I52
sg22
I16
sg23
I0
sg24
I1961
sg25
I47136
sg26
I4
sg27
I5003
ssg28
(dp2513
g23
I59930
sg22
I16
sg15
I5
sg21
I52
sssS'Human,Encode,D,HSaVEC'
p2514
(dp2515
g3
(dp2516
g5
I205
sg6
I6984
ssg7
(dp2517
g9
I0
sg10
I7189
sg11
I0
ssg12
(dp2518
g14
I0
sg15
I0
sg16
I26
sg17
I12
sg18
I76
sg19
I579
sg20
I12
sg21
I3
sg22
I3
sg23
I0
sg24
I227
sg25
I5643
sg26
I0
sg27
I607
ssg28
(dp2519
g23
I7183
sg22
I3
sg15
I0
sg21
I3
sssS'Human,SEQC,S,ILM_NVS_B'
p2520
(dp2521
g3
(dp2522
g5
I1701
sg6
I165869
ssg7
(dp2523
g9
I3715
sg10
I160172
sg11
I3683
ssg12
(dp2524
g14
I33
sg15
I18
sg16
I1679
sg17
I776
sg18
I6766
sg19
I32669
sg20
I365
sg21
I427
sg22
I188
sg23
I6
sg24
I9241
sg25
I94422
sg26
I32
sg27
I20833
ssg28
(dp2525
g23
I166937
sg22
I188
sg15
I18
sg21
I427
sssS'Human,Encode,S,IMR90'
p2526
(dp2527
g3
(dp2528
g5
I1094
sg6
I154105
ssg7
(dp2529
g9
I4525
sg10
I147206
sg11
I3468
ssg12
(dp2530
g14
I14
sg15
I9
sg16
I672
sg17
I395
sg18
I2378
sg19
I8663
sg20
I290
sg21
I138
sg22
I57
sg23
I2
sg24
I6869
sg25
I120308
sg26
I15
sg27
I15336
ssg28
(dp2531
g23
I154995
sg22
I57
sg15
I9
sg21
I138
sssS'Human,CCLE,S,CCLE-DLBC'
p2532
(dp2533
g3
(dp2534
g5
I894
sg6
I97890
ssg7
(dp2535
g9
I2941
sg10
I90145
sg11
I5698
ssg12
(dp2536
g14
I17
sg15
I9
sg16
I704
sg17
I477
sg18
I3028
sg19
I13574
sg20
I254
sg21
I854
sg22
I305
sg23
I6
sg24
I5221
sg25
I61908
sg26
I16
sg27
I12355
ssg28
(dp2537
g23
I97616
sg22
I305
sg15
I9
sg21
I854
sssS'Human,Encode,S,SK-N-SH_RA'
p2538
(dp2539
g3
(dp2540
g5
I694
sg6
I64768
ssg7
(dp2541
g9
I2882
sg10
I60740
sg11
I1840
ssg12
(dp2542
g14
I9
sg15
I6
sg16
I412
sg17
I169
sg18
I1551
sg19
I6468
sg20
I141
sg21
I84
sg22
I43
sg23
I1
sg24
I3262
sg25
I45780
sg26
I8
sg27
I7505
ssg28
(dp2543
g23
I65329
sg22
I43
sg15
I6
sg21
I84
sssS'Human,CCLE,P,CCLE-LCLL'
p2544
(dp2545
g3
(dp2546
g5
I1006
sg6
I130655
ssg7
(dp2547
g9
I2851
sg10
I126616
sg11
I2194
ssg12
(dp2548
g14
I23
sg15
I9
sg16
I922
sg17
I483
sg18
I3455
sg19
I14693
sg20
I281
sg21
I201
sg22
I89
sg23
I3
sg24
I7142
sg25
I88510
sg26
I22
sg27
I15767
ssg28
(dp2549
g23
I131362
sg22
I89
sg15
I9
sg21
I201
sssS'Human,Encode,S,HSaVEC'
p2550
(dp2551
g3
(dp2552
g5
I476
sg6
I44728
ssg7
(dp2553
g9
I1773
sg10
I41989
sg11
I1442
ssg12
(dp2554
g14
I5
sg15
I2
sg16
I188
sg17
I94
sg18
I654
sg19
I3573
sg20
I40
sg21
I53
sg22
I24
sg23
I1
sg24
I1701
sg25
I34888
sg26
I3
sg27
I3965
ssg28
(dp2555
g23
I45125
sg22
I24
sg15
I2
sg21
I53
sssS'Human,Roadmap,P,CD4_primary_cells'
p2556
(dp2557
g3
(dp2558
g5
I976
sg6
I114383
ssg7
(dp2559
g9
I4167
sg10
I108136
sg11
I3056
ssg12
(dp2560
g14
I11
sg15
I7
sg16
I668
sg17
I268
sg18
I2079
sg19
I8760
sg20
I214
sg21
I106
sg22
I52
sg23
I1
sg24
I4876
sg25
I86478
sg26
I16
sg27
I11780
ssg28
(dp2561
g23
I115194
sg22
I52
sg15
I7
sg21
I106
sssS'Human,Encode,P,hMSC-BM'
p2562
(dp2563
g3
(dp2564
g5
I804
sg6
I92858
ssg7
(dp2565
g9
I3991
sg10
I86904
sg11
I2767
ssg12
(dp2566
g14
I8
sg15
I5
sg16
I379
sg17
I174
sg18
I1245
sg19
I6764
sg20
I107
sg21
I87
sg22
I34
sg23
I0
sg24
I4459
sg25
I71290
sg26
I5
sg27
I9079
ssg28
(dp2567
g23
I93536
sg22
I34
sg15
I5
sg21
I87
sssS'Human,Encode,G,HOB'
p2568
(dp2569
g3
(dp2570
g5
I0
sg6
I73127
ssg7
(dp2571
g9
I3510
sg10
I67532
sg11
I2085
ssg12
(dp2572
g14
I17
sg15
I6
sg16
I330
sg17
I128
sg18
I952
sg19
I5575
sg20
I86
sg21
I50
sg22
I32
sg23
I0
sg24
I3188
sg25
I56806
sg26
I9
sg27
I5923
ssg28
(dp2573
g23
I73039
sg22
I32
sg15
I6
sg21
I50
sssS'Human,GEUV,D,TSI'
p2574
(dp2575
g3
(dp2576
g5
I381
sg6
I33296
ssg7
(dp2577
g9
I2
sg10
I33675
sg11
I0
ssg12
(dp2578
g14
I5
sg15
I2
sg16
I188
sg17
I100
sg18
I674
sg19
I2874
sg20
I76
sg21
I37
sg22
I16
sg23
I0
sg24
I1608
sg25
I23889
sg26
I1
sg27
I4197
ssg28
(dp2579
g23
I33622
sg22
I16
sg15
I2
sg21
I37
sssS'Human,CCLE,D,CCLE-BLCA'
p2580
(dp2581
g3
(dp2582
g5
I349
sg6
I18903
ssg7
(dp2583
g9
I1
sg10
I19251
sg11
I0
ssg12
(dp2584
g14
I2
sg15
I2
sg16
I122
sg17
I59
sg18
I394
sg19
I1596
sg20
I36
sg21
I22
sg22
I6
sg23
I2
sg24
I940
sg25
I13813
sg26
I1
sg27
I2251
ssg28
(dp2585
g23
I19222
sg22
I6
sg15
I2
sg21
I22
sssS'Human,Encode,P,GM12878'
p2586
(dp2587
g3
(dp2588
g5
I1916
sg6
I302291
ssg7
(dp2589
g9
I13230
sg10
I283134
sg11
I7843
ssg12
(dp2590
g14
I17
sg15
I10
sg16
I856
sg17
I396
sg18
I3428
sg19
I10669
sg20
I477
sg21
I166
sg22
I88
sg23
I3
sg24
I14631
sg25
I236978
sg26
I21
sg27
I36413
ssg28
(dp2591
g23
I303943
sg22
I88
sg15
I10
sg21
I166
sssS'Human,Encode,S,NHEK'
p2592
(dp2593
g3
(dp2594
g5
I1329
sg6
I154146
ssg7
(dp2595
g9
I5971
sg10
I145485
sg11
I4019
ssg12
(dp2596
g14
I11
sg15
I9
sg16
I807
sg17
I386
sg18
I2420
sg19
I11625
sg20
I232
sg21
I138
sg22
I74
sg23
I1
sg24
I6838
sg25
I118157
sg26
I17
sg27
I14709
ssg28
(dp2597
g23
I155254
sg22
I74
sg15
I9
sg21
I138
sssS'Human,Roadmap,S,H1_derived_neuronal_progenitor_cultured_cells'
p2598
(dp2599
g3
(dp2600
g5
I705
sg6
I70424
ssg7
(dp2601
g9
I1416
sg10
I68790
sg11
I923
ssg12
(dp2602
g14
I8
sg15
I7
sg16
I547
sg17
I240
sg18
I1756
sg19
I6830
sg20
I147
sg21
I81
sg22
I39
sg23
I0
sg24
I4169
sg25
I48553
sg26
I9
sg27
I8717
ssg28
(dp2603
g23
I71002
sg22
I39
sg15
I7
sg21
I81
sssS'Human,Encode,S,HOB'
p2604
(dp2605
g3
(dp2606
g5
I737
sg6
I75662
ssg7
(dp2607
g9
I3287
sg10
I70924
sg11
I2188
ssg12
(dp2608
g14
I11
sg15
I6
sg16
I346
sg17
I130
sg18
I1058
sg19
I6068
sg20
I87
sg21
I63
sg22
I35
sg23
I0
sg24
I3163
sg25
I58278
sg26
I10
sg27
I7120
ssg28
(dp2609
g23
I76295
sg22
I35
sg15
I6
sg21
I63
sssS'Human,Encode,G,SK-N-SH'
p2610
(dp2611
g3
(dp2612
g5
I0
sg6
I131974
ssg7
(dp2613
g9
I3552
sg10
I125490
sg11
I2932
ssg12
(dp2614
g14
I17
sg15
I10
sg16
I717
sg17
I375
sg18
I2188
sg19
I7760
sg20
I361
sg21
I118
sg22
I71
sg23
I2
sg24
I7598
sg25
I99154
sg26
I10
sg27
I13553
ssg28
(dp2615
g23
I131775
sg22
I71
sg15
I10
sg21
I118
sssS'Human,CCLE,P,CCLE-HNSC'
p2616
(dp2617
g3
(dp2618
g5
I683
sg6
I54673
ssg7
(dp2619
g9
I1221
sg10
I53191
sg11
I944
ssg12
(dp2620
g14
I10
sg15
I7
sg16
I443
sg17
I242
sg18
I1810
sg19
I9046
sg20
I136
sg21
I98
sg22
I40
sg23
I0
sg24
I2713
sg25
I34246
sg26
I10
sg27
I6517
ssg28
(dp2621
g23
I55211
sg22
I40
sg15
I7
sg21
I98
sssS'Human,Encode,G,NHEK'
p2622
(dp2623
g3
(dp2624
g5
I0
sg6
I149558
ssg7
(dp2625
g9
I6500
sg10
I138478
sg11
I4580
ssg12
(dp2626
g14
I12
sg15
I9
sg16
I780
sg17
I393
sg18
I2091
sg19
I10855
sg20
I247
sg21
I150
sg22
I85
sg23
I1
sg24
I7082
sg25
I115527
sg26
I14
sg27
I12258
ssg28
(dp2627
g23
I149314
sg22
I85
sg15
I9
sg21
I150
sssS'Human,HumanBodyMap,S,colon'
p2628
(dp2629
g3
(dp2630
g5
I315
sg6
I5867
ssg7
(dp2631
g9
I186
sg10
I5804
sg11
I192
ssg12
(dp2632
g14
I3
sg15
I0
sg16
I115
sg17
I20
sg18
I348
sg19
I3005
sg20
I14
sg21
I29
sg22
I8
sg23
I1
sg24
I335
sg25
I1543
sg26
I1
sg27
I753
ssg28
(dp2633
g23
I6145
sg22
I8
sg15
I0
sg21
I29
sssS'Human,Encode,S,A549'
p2634
(dp2635
g3
(dp2636
g5
I1064
sg6
I142161
ssg7
(dp2637
g9
I3777
sg10
I136467
sg11
I2981
ssg12
(dp2638
g14
I7
sg15
I7
sg16
I718
sg17
I313
sg18
I2299
sg19
I9188
sg20
I289
sg21
I136
sg22
I67
sg23
I2
sg24
I6680
sg25
I109444
sg26
I14
sg27
I14031
ssg28
(dp2639
g23
I143015
sg22
I67
sg15
I7
sg21
I136
sssS'Human,CCLE,G,CCLE-PRAD'
p2640
(dp2641
g3
(dp2642
g5
I0
sg6
I28044
ssg7
(dp2643
g9
I1008
sg10
I26042
sg11
I994
ssg12
(dp2644
g14
I10
sg15
I2
sg16
I322
sg17
I141
sg18
I1004
sg19
I5557
sg20
I78
sg21
I111
sg22
I44
sg23
I0
sg24
I1812
sg25
I15597
sg26
I7
sg27
I3336
ssg28
(dp2645
g23
I27887
sg22
I44
sg15
I2
sg21
I111
sssS'Human,SEQC,S,ILM_NVS_D'
p2646
(dp2647
g3
(dp2648
g5
I1669
sg6
I166590
ssg7
(dp2649
g9
I3674
sg10
I160881
sg11
I3704
ssg12
(dp2650
g14
I37
sg15
I19
sg16
I1676
sg17
I787
sg18
I6708
sg19
I31764
sg20
I364
sg21
I436
sg22
I201
sg23
I4
sg24
I9340
sg25
I95509
sg26
I29
sg27
I21273
ssg28
(dp2651
g23
I167603
sg22
I201
sg15
I19
sg21
I436
sssS'Human,Encode,P,GM12891'
p2652
(dp2653
g3
(dp2654
g5
I307
sg6
I12138
ssg7
(dp2655
g9
I280
sg10
I11872
sg11
I293
ssg12
(dp2656
g14
I2
sg15
I1
sg16
I93
sg17
I52
sg18
I415
sg19
I2310
sg20
I39
sg21
I20
sg22
I7
sg23
I0
sg24
I518
sg25
I7531
sg26
I2
sg27
I1451
ssg28
(dp2657
g23
I12417
sg22
I7
sg15
I1
sg21
I20
sssS'Human,Encode,G,BJ'
p2658
(dp2659
g3
(dp2660
g5
I0
sg6
I58405
ssg7
(dp2661
g9
I2181
sg10
I54731
sg11
I1493
ssg12
(dp2662
g14
I9
sg15
I6
sg16
I375
sg17
I150
sg18
I1099
sg19
I6193
sg20
I104
sg21
I69
sg22
I33
sg23
I0
sg24
I2794
sg25
I42409
sg26
I5
sg27
I5135
ssg28
(dp2663
g23
I58297
sg22
I33
sg15
I6
sg21
I69
sssS'Human,Encode,P,GM12892'
p2664
(dp2665
g3
(dp2666
g5
I659
sg6
I46328
ssg7
(dp2667
g9
I1261
sg10
I44576
sg11
I1150
ssg12
(dp2668
g14
I3
sg15
I3
sg16
I294
sg17
I158
sg18
I1220
sg19
I5882
sg20
I116
sg21
I69
sg22
I36
sg23
I1
sg24
I1904
sg25
I31960
sg26
I9
sg27
I5314
ssg28
(dp2669
g23
I46879
sg22
I36
sg15
I3
sg21
I69
sssS'Human,SEQC,P,ILM_AGR_A'
p2670
(dp2671
g3
(dp2672
g5
I1704
sg6
I199707
ssg7
(dp2673
g9
I4436
sg10
I193218
sg11
I3757
ssg12
(dp2674
g14
I33
sg15
I17
sg16
I1619
sg17
I702
sg18
I6532
sg19
I24172
sg20
I474
sg21
I354
sg22
I178
sg23
I6
sg24
I11712
sg25
I128444
sg26
I28
sg27
I27057
ssg28
(dp2675
g23
I200862
sg22
I178
sg15
I17
sg21
I354
sssS'Human,ABRF,G,ABRF-ILMN-RIBO-A'
p2676
(dp2677
g3
(dp2678
g5
I0
sg6
I10278
ssg7
(dp2679
g9
I1168
sg10
I8249
sg11
I861
ssg12
(dp2680
g14
I3
sg15
I0
sg16
I48
sg17
I16
sg18
I162
sg19
I855
sg20
I4
sg21
I11
sg22
I10
sg23
I0
sg24
I425
sg25
I7878
sg26
I0
sg27
I860
ssg28
(dp2681
g23
I10257
sg22
I10
sg15
I0
sg21
I11
sssS'Human,SEQC,P,ILM_AGR_C'
p2682
(dp2683
g3
(dp2684
g5
I1936
sg6
I245345
ssg7
(dp2685
g9
I6010
sg10
I235924
sg11
I5347
ssg12
(dp2686
g14
I38
sg15
I18
sg16
I1966
sg17
I906
sg18
I8045
sg19
I28880
sg20
I579
sg21
I440
sg22
I183
sg23
I4
sg24
I14837
sg25
I158289
sg26
I33
sg27
I32943
ssg28
(dp2687
g23
I246640
sg22
I183
sg15
I18
sg21
I440
sssS'Human,Encode,G,HSaVEC'
p2688
(dp2689
g3
(dp2690
g5
I0
sg6
I43260
ssg7
(dp2691
g9
I1828
sg10
I40032
sg11
I1400
ssg12
(dp2692
g14
I6
sg15
I2
sg16
I182
sg17
I88
sg18
I567
sg19
I3275
sg20
I41
sg21
I35
sg22
I18
sg23
I1
sg24
I1741
sg25
I34074
sg26
I3
sg27
I3212
ssg28
(dp2693
g23
I43205
sg22
I18
sg15
I2
sg21
I35
sssS'Human,ABRF,G,ABRF-ILMN-RIBO-D'
p2694
(dp2695
g3
(dp2696
g5
I0
sg6
I27666
ssg7
(dp2697
g9
I1556
sg10
I24957
sg11
I1153
ssg12
(dp2698
g14
I4
sg15
I2
sg16
I141
sg17
I52
sg18
I442
sg19
I2312
sg20
I25
sg21
I32
sg22
I12
sg23
I0
sg24
I1089
sg25
I21335
sg26
I1
sg27
I2210
ssg28
(dp2699
g23
I27620
sg22
I12
sg15
I2
sg21
I32
sssS'Human,SEQC,P,ILM_AGR_D'
p2700
(dp2701
g3
(dp2702
g5
I2181
sg6
I293659
ssg7
(dp2703
g9
I8025
sg10
I280811
sg11
I7004
ssg12
(dp2704
g14
I43
sg15
I18
sg16
I2460
sg17
I1061
sg18
I9463
sg19
I32686
sg20
I696
sg21
I514
sg22
I241
sg23
I7
sg24
I18115
sg25
I190778
sg26
I39
sg27
I39571
ssg28
(dp2705
g23
I295067
sg22
I241
sg15
I18
sg21
I514
sssS'Human,Roadmap,P,esophagus'
p2706
(dp2707
g3
(dp2708
g5
I840
sg6
I78965
ssg7
(dp2709
g9
I1758
sg10
I76456
sg11
I1591
ssg12
(dp2710
g14
I13
sg15
I4
sg16
I519
sg17
I242
sg18
I1696
sg19
I7842
sg20
I138
sg21
I123
sg22
I61
sg23
I2
sg24
I3620
sg25
I57272
sg26
I10
sg27
I8222
ssg28
(dp2711
g23
I79617
sg22
I61
sg15
I4
sg21
I123
sssS'Human,Encode,G,NHEM_M2'
p2712
(dp2713
g3
(dp2714
g5
I0
sg6
I24010
ssg7
(dp2715
g9
I1317
sg10
I21863
sg11
I830
ssg12
(dp2716
g14
I4
sg15
I1
sg16
I142
sg17
I54
sg18
I363
sg19
I2899
sg20
I29
sg21
I25
sg22
I6
sg23
I0
sg24
I1167
sg25
I17181
sg26
I3
sg27
I2129
ssg28
(dp2717
g23
I23978
sg22
I6
sg15
I1
sg21
I25
sssS'Human,CCLE,G,CCLE-KIRC'
p2718
(dp2719
g3
(dp2720
g5
I0
sg6
I44012
ssg7
(dp2721
g9
I1571
sg10
I40840
sg11
I1601
ssg12
(dp2722
g14
I15
sg15
I8
sg16
I462
sg17
I236
sg18
I1399
sg19
I8522
sg20
I123
sg21
I140
sg22
I60
sg23
I1
sg24
I2607
sg25
I25654
sg26
I6
sg27
I4742
ssg28
(dp2723
g23
I43804
sg22
I60
sg15
I8
sg21
I140
sssS'Human,Encode,P,HAoEC'
p2724
(dp2725
g3
(dp2726
g5
I657
sg6
I91507
ssg7
(dp2727
g9
I4002
sg10
I84986
sg11
I3176
ssg12
(dp2728
g14
I6
sg15
I2
sg16
I251
sg17
I131
sg18
I872
sg19
I3848
sg20
I89
sg21
I61
sg22
I33
sg23
I0
sg24
I3251
sg25
I76252
sg26
I5
sg27
I7349
ssg28
(dp2729
g23
I92068
sg22
I33
sg15
I2
sg21
I61
sssS'Human,Encode,S,hMNC-PB'
p2730
(dp2731
g3
(dp2732
g5
I612
sg6
I70966
ssg7
(dp2733
g9
I3479
sg10
I65473
sg11
I2626
ssg12
(dp2734
g14
I6
sg15
I4
sg16
I202
sg17
I102
sg18
I799
sg19
I3593
sg20
I65
sg21
I57
sg22
I32
sg23
I0
sg24
I1738
sg25
I60721
sg26
I6
sg27
I4245
ssg28
(dp2735
g23
I71485
sg22
I32
sg15
I4
sg21
I57
sssS'Human,CCLE,D,CCLE-LUSC'
p2736
(dp2737
g3
(dp2738
g5
I1165
sg6
I79088
ssg7
(dp2739
g9
I8
sg10
I80242
sg11
I3
ssg12
(dp2740
g14
I4
sg15
I3
sg16
I344
sg17
I173
sg18
I1211
sg19
I3267
sg20
I175
sg21
I63
sg22
I20
sg23
I1
sg24
I4307
sg25
I60758
sg26
I5
sg27
I9899
ssg28
(dp2741
g23
I80167
sg22
I20
sg15
I3
sg21
I63
sssS'Human,Encode,P,IMR90'
p2742
(dp2743
g3
(dp2744
g5
I1154
sg6
I169748
ssg7
(dp2745
g9
I4978
sg10
I162035
sg11
I3889
ssg12
(dp2746
g14
I15
sg15
I9
sg16
I733
sg17
I408
sg18
I2455
sg19
I8686
sg20
I330
sg21
I133
sg22
I55
sg23
I2
sg24
I7828
sg25
I133207
sg26
I17
sg27
I16970
ssg28
(dp2747
g23
I170705
sg22
I55
sg15
I9
sg21
I133
sssS'Human,Encode,G,HFDPC'
p2748
(dp2749
g3
(dp2750
g5
I0
sg6
I56892
ssg7
(dp2751
g9
I2768
sg10
I52139
sg11
I1985
ssg12
(dp2752
g14
I7
sg15
I3
sg16
I302
sg17
I104
sg18
I863
sg19
I6040
sg20
I85
sg21
I52
sg22
I27
sg23
I0
sg24
I2600
sg25
I42354
sg26
I7
sg27
I4425
ssg28
(dp2753
g23
I56810
sg22
I27
sg15
I3
sg21
I52
sssS'Human,SEQC,D,ILM_BGI_C'
p2754
(dp2755
g3
(dp2756
g5
I422
sg6
I41646
ssg7
(dp2757
g9
I2
sg10
I42066
sg11
I0
ssg12
(dp2758
g14
I2
sg15
I5
sg16
I280
sg17
I129
sg18
I973
sg19
I3312
sg20
I94
sg21
I53
sg22
I19
sg23
I0
sg24
I2383
sg25
I29341
sg26
I3
sg27
I5459
ssg28
(dp2759
g23
I41991
sg22
I19
sg15
I5
sg21
I53
sssS'Human,SEQC,D,ILM_BGI_B'
p2760
(dp2761
g3
(dp2762
g5
I470
sg6
I55711
ssg7
(dp2763
g9
I2
sg10
I56178
sg11
I1
ssg12
(dp2764
g14
I6
sg15
I8
sg16
I368
sg17
I176
sg18
I1223
sg19
I4071
sg20
I120
sg21
I68
sg22
I26
sg23
I3
sg24
I3184
sg25
I39741
sg26
I3
sg27
I7165
ssg28
(dp2765
g23
I56079
sg22
I26
sg15
I8
sg21
I68
sssS'Human,Encode,G,AG04450'
p2766
(dp2767
g3
(dp2768
g5
I0
sg6
I49763
ssg7
(dp2769
g9
I2626
sg10
I45194
sg11
I1943
ssg12
(dp2770
g14
I5
sg15
I4
sg16
I341
sg17
I147
sg18
I897
sg19
I5724
sg20
I86
sg21
I69
sg22
I30
sg23
I0
sg24
I2380
sg25
I35740
sg26
I8
sg27
I4312
ssg28
(dp2771
g23
I49660
sg22
I30
sg15
I4
sg21
I69
sssS'Human,CCLE,S,CCLE-THCA'
p2772
(dp2773
g3
(dp2774
g5
I525
sg6
I36064
ssg7
(dp2775
g9
I910
sg10
I34448
sg11
I1231
ssg12
(dp2776
g14
I6
sg15
I6
sg16
I325
sg17
I191
sg18
I1330
sg19
I6871
sg20
I64
sg21
I171
sg22
I78
sg23
I3
sg24
I1871
sg25
I21184
sg26
I6
sg27
I4458
ssg28
(dp2777
g23
I36334
sg22
I78
sg15
I6
sg21
I171
sssS'Human,Roadmap,G,sigmoid_colon'
p2778
(dp2779
g3
(dp2780
g5
I0
sg6
I74377
ssg7
(dp2781
g9
I2160
sg10
I70450
sg11
I1767
ssg12
(dp2782
g14
I9
sg15
I6
sg16
I583
sg17
I181
sg18
I1496
sg19
I8654
sg20
I129
sg21
I192
sg22
I64
sg23
I6
sg24
I3701
sg25
I52279
sg26
I10
sg27
I7043
ssg28
(dp2783
g23
I74115
sg22
I64
sg15
I6
sg21
I192
sssS'Human,Roadmap,D,adrenal_gland'
p2784
(dp2785
g3
(dp2786
g5
I452
sg6
I24439
ssg7
(dp2787
g9
I0
sg10
I24891
sg11
I0
ssg12
(dp2788
g14
I1
sg15
I2
sg16
I99
sg17
I51
sg18
I315
sg19
I1432
sg20
I44
sg21
I16
sg22
I9
sg23
I0
sg24
I1076
sg25
I19230
sg26
I0
sg27
I2609
ssg28
(dp2789
g23
I24864
sg22
I9
sg15
I2
sg21
I16
sssS'Human,Encode,D,NHEK'
p2790
(dp2791
g3
(dp2792
g5
I381
sg6
I24939
ssg7
(dp2793
g9
I0
sg10
I25318
sg11
I2
ssg12
(dp2794
g14
I0
sg15
I1
sg16
I128
sg17
I58
sg18
I290
sg19
I1617
sg20
I56
sg21
I15
sg22
I4
sg23
I0
sg24
I1029
sg25
I19773
sg26
I1
sg27
I2341
ssg28
(dp2795
g23
I25300
sg22
I4
sg15
I1
sg21
I15
sssS'Human,Encode,P,BJ'
p2796
(dp2797
g3
(dp2798
g5
I690
sg6
I63694
ssg7
(dp2799
g9
I2147
sg10
I60688
sg11
I1549
ssg12
(dp2800
g14
I8
sg15
I6
sg16
I410
sg17
I158
sg18
I1302
sg19
I6642
sg20
I101
sg21
I67
sg22
I35
sg23
I1
sg24
I2926
sg25
I45899
sg26
I6
sg27
I6796
ssg28
(dp2801
g23
I64276
sg22
I35
sg15
I6
sg21
I67
sssS'Human,Encode,G,Hmnccb'
p2802
(dp2803
g3
(dp2804
g5
I0
sg6
I13947
ssg7
(dp2805
g9
I697
sg10
I12651
sg11
I599
ssg12
(dp2806
g14
I1
sg15
I2
sg16
I25
sg17
I27
sg18
I223
sg19
I835
sg20
I12
sg21
I11
sg22
I3
sg23
I0
sg24
I266
sg25
I11927
sg26
I1
sg27
I612
ssg28
(dp2807
g23
I13931
sg22
I3
sg15
I2
sg21
I11
sssS'Human,ABRF,S,ABRF-ILMN-L-A'
p2808
(dp2809
g3
(dp2810
g5
I795
sg6
I82632
ssg7
(dp2811
g9
I2034
sg10
I79635
sg11
I1758
ssg12
(dp2812
g14
I10
sg15
I4
sg16
I340
sg17
I147
sg18
I1171
sg19
I5195
sg20
I102
sg21
I69
sg22
I30
sg23
I0
sg24
I3325
sg25
I64971
sg26
I5
sg27
I8033
ssg28
(dp2813
g23
I83324
sg22
I30
sg15
I4
sg21
I69
sssS'Human,ABRF,S,ABRF-ILMN-L-B'
p2814
(dp2815
g3
(dp2816
g5
I848
sg6
I82938
ssg7
(dp2817
g9
I2327
sg10
I79597
sg11
I1862
ssg12
(dp2818
g14
I9
sg15
I6
sg16
I384
sg17
I146
sg18
I1453
sg19
I6882
sg20
I80
sg21
I121
sg22
I50
sg23
I1
sg24
I3002
sg25
I64342
sg26
I8
sg27
I7269
ssg28
(dp2819
g23
I83609
sg22
I50
sg15
I6
sg21
I121
sssS'Human,GEUV,D,FIN'
p2820
(dp2821
g3
(dp2822
g5
I362
sg6
I33849
ssg7
(dp2823
g9
I3
sg10
I34208
sg11
I0
ssg12
(dp2824
g14
I4
sg15
I4
sg16
I196
sg17
I93
sg18
I703
sg19
I2896
sg20
I71
sg21
I40
sg22
I13
sg23
I0
sg24
I1659
sg25
I24271
sg26
I0
sg27
I4251
ssg28
(dp2825
g23
I34154
sg22
I13
sg15
I4
sg21
I40
sssS'Human,SEQC,S,ILM_CNL_C'
p2826
(dp2827
g3
(dp2828
g5
I1626
sg6
I166958
ssg7
(dp2829
g9
I3404
sg10
I161890
sg11
I3290
ssg12
(dp2830
g14
I30
sg15
I20
sg16
I1514
sg17
I677
sg18
I6252
sg19
I29640
sg20
I391
sg21
I404
sg22
I190
sg23
I1
sg24
I9157
sg25
I98766
sg26
I26
sg27
I21407
ssg28
(dp2831
g23
I167970
sg22
I190
sg15
I20
sg21
I404
sssS'Human,CCLE,G,CCLE-HNSC'
p2832
(dp2833
g3
(dp2834
g5
I0
sg6
I55420
ssg7
(dp2835
g9
I1927
sg10
I51643
sg11
I1850
ssg12
(dp2836
g14
I17
sg15
I8
sg16
I470
sg17
I284
sg18
I1681
sg19
I9276
sg20
I154
sg21
I174
sg22
I76
sg23
I0
sg24
I3055
sg25
I34240
sg26
I11
sg27
I5931
ssg28
(dp2837
g23
I55162
sg22
I76
sg15
I8
sg21
I174
sssS'Human,Roadmap,D,ovary'
p2838
(dp2839
g3
(dp2840
g5
I110
sg6
I6973
ssg7
(dp2841
g9
I0
sg10
I7083
sg11
I0
ssg12
(dp2842
g14
I2
sg15
I0
sg16
I76
sg17
I38
sg18
I258
sg19
I1348
sg20
I21
sg21
I6
sg22
I2
sg23
I0
sg24
I357
sg25
I3995
sg26
I1
sg27
I973
ssg28
(dp2843
g23
I7075
sg22
I2
sg15
I0
sg21
I6
sssS'Human,Encode,G,HVMF'
p2844
(dp2845
g3
(dp2846
g5
I0
sg6
I59895
ssg7
(dp2847
g9
I2571
sg10
I55627
sg11
I1697
ssg12
(dp2848
g14
I11
sg15
I4
sg16
I311
sg17
I89
sg18
I863
sg19
I5687
sg20
I66
sg21
I45
sg22
I21
sg23
I1
sg24
I2511
sg25
I45458
sg26
I6
sg27
I4797
ssg28
(dp2849
g23
I59825
sg22
I21
sg15
I4
sg21
I45
sssS'Human,BrainDataSet,P,Homosapiens'
p2850
(dp2851
g3
(dp2852
g5
I908
sg6
I73204
ssg7
(dp2853
g9
I2486
sg10
I69435
sg11
I2191
ssg12
(dp2854
g14
I14
sg15
I7
sg16
I651
sg17
I343
sg18
I2615
sg19
I10244
sg20
I162
sg21
I149
sg22
I63
sg23
I2
sg24
I4348
sg25
I45424
sg26
I14
sg27
I10026
ssg28
(dp2855
g23
I73893
sg22
I63
sg15
I7
sg21
I149
sssS'Human,GEUV,G,GBR'
p2856
(dp2857
g3
(dp2858
g5
I0
sg6
I188381
ssg7
(dp2859
g9
I5540
sg10
I176561
sg11
I6280
ssg12
(dp2860
g14
I30
sg15
I18
sg16
I1310
sg17
I560
sg18
I3922
sg19
I21910
sg20
I427
sg21
I1285
sg22
I530
sg23
I95
sg24
I10022
sg25
I129064
sg26
I20
sg27
I19122
ssg28
(dp2861
g23
I186548
sg22
I530
sg15
I18
sg21
I1285
sssS'Human,Roadmap,G,psoas_muscle'
p2862
(dp2863
g3
(dp2864
g5
I0
sg6
I24738
ssg7
(dp2865
g9
I734
sg10
I23190
sg11
I814
ssg12
(dp2866
g14
I6
sg15
I3
sg16
I251
sg17
I111
sg18
I642
sg19
I3627
sg20
I51
sg21
I67
sg22
I30
sg23
I0
sg24
I1426
sg25
I15999
sg26
I5
sg27
I2505
ssg28
(dp2867
g23
I24638
sg22
I30
sg15
I3
sg21
I67
sssS'Human,SEQC,S,ILM_AGR_D'
p2868
(dp2869
g3
(dp2870
g5
I1838
sg6
I197435
ssg7
(dp2871
g9
I4492
sg10
I190566
sg11
I4215
ssg12
(dp2872
g14
I40
sg15
I20
sg16
I1879
sg17
I861
sg18
I7459
sg19
I34070
sg20
I450
sg21
I454
sg22
I229
sg23
I6
sg24
I10962
sg25
I117431
sg26
I34
sg27
I25258
ssg28
(dp2873
g23
I198570
sg22
I229
sg15
I20
sg21
I454
sssS'Human,SEQC,S,ILM_AGR_B'
p2874
(dp2875
g3
(dp2876
g5
I1861
sg6
I199598
ssg7
(dp2877
g9
I4411
sg10
I192832
sg11
I4216
ssg12
(dp2878
g14
I36
sg15
I19
sg16
I1923
sg17
I876
sg18
I7525
sg19
I35233
sg20
I425
sg21
I469
sg22
I230
sg23
I7
sg24
I11045
sg25
I118358
sg26
I33
sg27
I25155
ssg28
(dp2879
g23
I200741
sg22
I230
sg15
I19
sg21
I469
sssS'Human,SEQC,S,ILM_AGR_C'
p2880
(dp2881
g3
(dp2882
g5
I1714
sg6
I182249
ssg7
(dp2883
g9
I4012
sg10
I176264
sg11
I3687
ssg12
(dp2884
g14
I32
sg15
I18
sg16
I1622
sg17
I781
sg18
I6688
sg19
I30058
sg20
I433
sg21
I416
sg22
I197
sg23
I3
sg24
I10134
sg25
I109912
sg26
I28
sg27
I23533
ssg28
(dp2885
g23
I183332
sg22
I197
sg15
I18
sg21
I416
sssS'Human,Roadmap,G,gastric'
p2886
(dp2887
g3
(dp2888
g5
I0
sg6
I14831
ssg7
(dp2889
g9
I149
sg10
I14484
sg11
I198
ssg12
(dp2890
g14
I3
sg15
I2
sg16
I190
sg17
I16
sg18
I320
sg19
I2805
sg20
I20
sg21
I56
sg22
I26
sg23
I0
sg24
I720
sg25
I9248
sg26
I2
sg27
I1412
ssg28
(dp2891
g23
I14747
sg22
I26
sg15
I2
sg21
I56
sssS'Human,SEQC,S,ILM_AGR_A'
p2892
(dp2893
g3
(dp2894
g5
I1558
sg6
I159633
ssg7
(dp2895
g9
I3297
sg10
I155045
sg11
I2849
ssg12
(dp2896
g14
I28
sg15
I16
sg16
I1436
sg17
I651
sg18
I5753
sg19
I25331
sg20
I372
sg21
I354
sg22
I162
sg23
I4
sg24
I8948
sg25
I97245
sg26
I22
sg27
I20785
ssg28
(dp2897
g23
I160659
sg22
I162
sg15
I16
sg21
I354
sssS'Human,Roadmap,G,ovary'
p2898
(dp2899
g3
(dp2900
g5
I0
sg6
I54488
ssg7
(dp2901
g9
I1654
sg10
I51522
sg11
I1312
ssg12
(dp2902
g14
I16
sg15
I5
sg16
I628
sg17
I218
sg18
I1763
sg19
I9804
sg20
I159
sg21
I146
sg22
I57
sg23
I1
sg24
I3309
sg25
I32208
sg26
I17
sg27
I6114
ssg28
(dp2903
g23
I54280
sg22
I57
sg15
I5
sg21
I146
sssS'Human,Roadmap,P,lung'
p2904
(dp2905
g3
(dp2906
g5
I1090
sg6
I92524
ssg7
(dp2907
g9
I2345
sg10
I89063
sg11
I2206
ssg12
(dp2908
g14
I6
sg15
I8
sg16
I774
sg17
I269
sg18
I2386
sg19
I12680
sg20
I148
sg21
I207
sg22
I81
sg23
I7
sg24
I4338
sg25
I62681
sg26
I12
sg27
I9975
ssg28
(dp2909
g23
I93318
sg22
I81
sg15
I8
sg21
I207
sssS'Human,CCLE,D,CCLE-CESC'
p2910
(dp2911
g3
(dp2912
g5
I491
sg6
I28499
ssg7
(dp2913
g9
I0
sg10
I28990
sg11
I0
ssg12
(dp2914
g14
I2
sg15
I3
sg16
I139
sg17
I67
sg18
I462
sg19
I1795
sg20
I62
sg21
I31
sg22
I6
sg23
I0
sg24
I1393
sg25
I21801
sg26
I1
sg27
I3220
ssg28
(dp2915
g23
I28950
sg22
I6
sg15
I3
sg21
I31
sssS'Human,ABRF,G,ABRF-ILMN-N-AR'
p2916
(dp2917
g3
(dp2918
g5
I0
sg6
I56946
ssg7
(dp2919
g9
I979
sg10
I55092
sg11
I875
ssg12
(dp2920
g14
I6
sg15
I4
sg16
I227
sg17
I89
sg18
I793
sg19
I3719
sg20
I68
sg21
I42
sg22
I22
sg23
I0
sg24
I2183
sg25
I45541
sg26
I4
sg27
I4236
ssg28
(dp2921
g23
I56878
sg22
I22
sg15
I4
sg21
I42
sssS'Human,Encode,D,IMR90'
p2922
(dp2923
g3
(dp2924
g5
I390
sg6
I25205
ssg7
(dp2925
g9
I3
sg10
I25591
sg11
I1
ssg12
(dp2926
g14
I4
sg15
I2
sg16
I103
sg17
I57
sg18
I318
sg19
I1279
sg20
I65
sg21
I15
sg22
I5
sg23
I0
sg24
I1077
sg25
I20143
sg26
I0
sg27
I2517
ssg28
(dp2927
g23
I25573
sg22
I5
sg15
I2
sg21
I15
sssS'Human,Roadmap,P,pancreas'
p2928
(dp2929
g3
(dp2930
g5
I1242
sg6
I146249
ssg7
(dp2931
g9
I2668
sg10
I142409
sg11
I2414
ssg12
(dp2932
g14
I12
sg15
I9
sg16
I788
sg17
I292
sg18
I2733
sg19
I9750
sg20
I254
sg21
I159
sg22
I74
sg23
I0
sg24
I6762
sg25
I111532
sg26
I15
sg27
I15058
ssg28
(dp2933
g23
I147249
sg22
I74
sg15
I9
sg21
I159
sssS'Human,ABRF,G,ABRF-ILMN-N-AH'
p2934
(dp2935
g3
(dp2936
g5
I0
sg6
I21835
ssg7
(dp2937
g9
I455
sg10
I21008
sg11
I372
ssg12
(dp2938
g14
I3
sg15
I1
sg16
I90
sg17
I35
sg18
I374
sg19
I1916
sg20
I29
sg21
I17
sg22
I8
sg23
I0
sg24
I856
sg25
I16858
sg26
I2
sg27
I1635
ssg28
(dp2939
g23
I21809
sg22
I8
sg15
I1
sg21
I17
sssS'Human,Encode,P,NHEM.f_M2'
p2940
(dp2941
g3
(dp2942
g5
I696
sg6
I46287
ssg7
(dp2943
g9
I2460
sg10
I42715
sg11
I1808
ssg12
(dp2944
g14
I10
sg15
I3
sg16
I289
sg17
I88
sg18
I734
sg19
I5650
sg20
I33
sg21
I57
sg22
I25
sg23
I1
sg24
I1849
sg25
I34135
sg26
I3
sg27
I4093
ssg28
(dp2945
g23
I46898
sg22
I25
sg15
I3
sg21
I57
sssS'Human,Encode,P,hMSC-AT'
p2946
(dp2947
g3
(dp2948
g5
I699
sg6
I72860
ssg7
(dp2949
g9
I3445
sg10
I67526
sg11
I2588
ssg12
(dp2950
g14
I8
sg15
I4
sg16
I299
sg17
I120
sg18
I922
sg19
I5418
sg20
I75
sg21
I56
sg22
I22
sg23
I0
sg24
I3286
sg25
I56053
sg26
I3
sg27
I7270
ssg28
(dp2951
g23
I73477
sg22
I22
sg15
I4
sg21
I56
sssS'Human,ABRF,S,ABRF-ILMN-V-B'
p2952
(dp2953
g3
(dp2954
g5
I893
sg6
I88637
ssg7
(dp2955
g9
I2475
sg10
I85014
sg11
I2041
ssg12
(dp2956
g14
I11
sg15
I8
sg16
I405
sg17
I166
sg18
I1524
sg19
I7060
sg20
I93
sg21
I113
sg22
I50
sg23
I2
sg24
I3310
sg25
I69089
sg26
I9
sg27
I7647
ssg28
(dp2957
g23
I89359
sg22
I50
sg15
I8
sg21
I113
sssS'Human,ABRF,S,ABRF-ILMN-V-A'
p2958
(dp2959
g3
(dp2960
g5
I661
sg6
I56006
ssg7
(dp2961
g9
I1449
sg10
I53999
sg11
I1219
ssg12
(dp2962
g14
I7
sg15
I3
sg16
I239
sg17
I93
sg18
I926
sg19
I4102
sg20
I58
sg21
I58
sg22
I20
sg23
I1
sg24
I2113
sg25
I43611
sg26
I2
sg27
I5416
ssg28
(dp2963
g23
I56586
sg22
I20
sg15
I3
sg21
I58
sssS'Human,Encode,P,HMEC'
p2964
(dp2965
g3
(dp2966
g5
I232
sg6
I8696
ssg7
(dp2967
g9
I228
sg10
I8320
sg11
I380
ssg12
(dp2968
g14
I3
sg15
I4
sg16
I100
sg17
I54
sg18
I374
sg19
I2505
sg20
I27
sg21
I38
sg22
I14
sg23
I1
sg24
I487
sg25
I4336
sg26
I0
sg27
I983
ssg28
(dp2969
g23
I8872
sg22
I14
sg15
I4
sg21
I38
sssS'Human,CCLE,S,CCLE-ESCA'
p2970
(dp2971
g3
(dp2972
g5
I757
sg6
I67635
ssg7
(dp2973
g9
I1925
sg10
I63556
sg11
I2911
ssg12
(dp2974
g14
I15
sg15
I8
sg16
I547
sg17
I404
sg18
I2313
sg19
I10683
sg20
I182
sg21
I450
sg22
I167
sg23
I3
sg24
I3577
sg25
I41179
sg26
I14
sg27
I8808
ssg28
(dp2975
g23
I67767
sg22
I167
sg15
I8
sg21
I450
sssS'Human,Roadmap,D,CD56_primary_cells'
p2976
(dp2977
g3
(dp2978
g5
I379
sg6
I20674
ssg7
(dp2979
g9
I0
sg10
I21053
sg11
I0
ssg12
(dp2980
g14
I0
sg15
I0
sg16
I72
sg17
I26
sg18
I160
sg19
I754
sg20
I18
sg21
I9
sg22
I4
sg23
I0
sg24
I743
sg25
I17351
sg26
I0
sg27
I1913
ssg28
(dp2981
g23
I21040
sg22
I4
sg15
I0
sg21
I9
sssS'Human,GEUV,P,FIN'
p2982
(dp2983
g3
(dp2984
g5
I1790
sg6
I228631
ssg7
(dp2985
g9
I6228
sg10
I219159
sg11
I5034
ssg12
(dp2986
g14
I22
sg15
I16
sg16
I1403
sg17
I563
sg18
I4713
sg19
I20187
sg20
I492
sg21
I490
sg22
I193
sg23
I14
sg24
I12502
sg25
I160648
sg26
I27
sg27
I29085
ssg28
(dp2987
g23
I229722
sg22
I193
sg15
I16
sg21
I490
sssS'Human,Encode,S,SkMC'
p2988
(dp2989
g3
(dp2990
g5
I368
sg6
I25106
ssg7
(dp2991
g9
I1152
sg10
I23474
sg11
I848
ssg12
(dp2992
g14
I4
sg15
I2
sg16
I150
sg17
I66
sg18
I409
sg19
I3028
sg20
I36
sg21
I35
sg22
I15
sg23
I1
sg24
I1152
sg25
I17968
sg26
I2
sg27
I2599
ssg28
(dp2993
g23
I25422
sg22
I15
sg15
I2
sg21
I35
sssS'Human,Encode,G,hMSC-AT'
p2994
(dp2995
g3
(dp2996
g5
I0
sg6
I65375
ssg7
(dp2997
g9
I3342
sg10
I59821
sg11
I2212
ssg12
(dp2998
g14
I11
sg15
I4
sg16
I280
sg17
I111
sg18
I796
sg19
I5030
sg20
I77
sg21
I50
sg22
I13
sg23
I0
sg24
I3016
sg25
I50405
sg26
I3
sg27
I5557
ssg28
(dp2999
g23
I65308
sg22
I13
sg15
I4
sg21
I50
sssS'Human,ABRF,S,ABRF-ILMN-RNA-D'
p3000
(dp3001
g3
(dp3002
g5
I455
sg6
I15246
ssg7
(dp3003
g9
I432
sg10
I14782
sg11
I487
ssg12
(dp3004
g14
I3
sg15
I2
sg16
I172
sg17
I53
sg18
I686
sg19
I3749
sg20
I30
sg21
I49
sg22
I18
sg23
I1
sg24
I810
sg25
I8257
sg26
I3
sg27
I1852
ssg28
(dp3005
g23
I15632
sg22
I18
sg15
I2
sg21
I49
sssS'Human,ABRF,S,ABRF-ILMN-N-BR'
p3006
(dp3007
g3
(dp3008
g5
I872
sg6
I93563
ssg7
(dp3009
g9
I2163
sg10
I90448
sg11
I1824
ssg12
(dp3010
g14
I10
sg15
I7
sg16
I385
sg17
I173
sg18
I1524
sg19
I6610
sg20
I92
sg21
I119
sg22
I42
sg23
I2
sg24
I3523
sg25
I73799
sg26
I9
sg27
I8107
ssg28
(dp3011
g23
I94267
sg22
I42
sg15
I7
sg21
I119
sssS'Human,ABRF,S,ABRF-ILMN-RNA-C'
p3012
(dp3013
g3
(dp3014
g5
I376
sg6
I12198
ssg7
(dp3015
g9
I377
sg10
I11802
sg11
I395
ssg12
(dp3016
g14
I3
sg15
I3
sg16
I114
sg17
I51
sg18
I542
sg19
I2831
sg20
I26
sg21
I36
sg22
I19
sg23
I0
sg24
I670
sg25
I6799
sg26
I2
sg27
I1467
ssg28
(dp3017
g23
I12516
sg22
I19
sg15
I3
sg21
I36
sssS'Human,ABRF,S,ABRF-ILMN-RNA-A'
p3018
(dp3019
g3
(dp3020
g5
I304
sg6
I10175
ssg7
(dp3021
g9
I374
sg10
I9724
sg11
I381
ssg12
(dp3022
g14
I3
sg15
I1
sg16
I114
sg17
I39
sg18
I435
sg19
I2143
sg20
I32
sg21
I24
sg22
I16
sg23
I0
sg24
I513
sg25
I5939
sg26
I1
sg27
I1212
ssg28
(dp3023
g23
I10438
sg22
I16
sg15
I1
sg21
I24
sssS'Human,Roadmap,G,thymus'
p3024
(dp3025
g3
(dp3026
g5
I0
sg6
I87149
ssg7
(dp3027
g9
I1525
sg10
I84101
sg11
I1523
ssg12
(dp3028
g14
I13
sg15
I7
sg16
I648
sg17
I245
sg18
I1999
sg19
I9449
sg20
I192
sg21
I245
sg22
I89
sg23
I9
sg24
I4487
sg25
I60807
sg26
I11
sg27
I8902
ssg28
(dp3029
g23
I86808
sg22
I89
sg15
I7
sg21
I245
sssS'Human,Roadmap,P,gastric'
p3030
(dp3031
g3
(dp3032
g5
I370
sg6
I17266
ssg7
(dp3033
g9
I162
sg10
I17237
sg11
I237
ssg12
(dp3034
g14
I3
sg15
I2
sg16
I198
sg17
I19
sg18
I406
sg19
I3129
sg20
I22
sg21
I52
sg22
I31
sg23
I1
sg24
I826
sg25
I11007
sg26
I2
sg27
I1927
ssg28
(dp3035
g23
I17551
sg22
I31
sg15
I2
sg21
I52
sssS'Human,Roadmap,G,H1_BMP4_derived_mesendoderm_cultured_cells'
p3036
(dp3037
g3
(dp3038
g5
I0
sg6
I42620
ssg7
(dp3039
g9
I1391
sg10
I40080
sg11
I1149
ssg12
(dp3040
g14
I8
sg15
I3
sg16
I385
sg17
I100
sg18
I910
sg19
I5423
sg20
I73
sg21
I49
sg22
I13
sg23
I0
sg24
I2372
sg25
I29170
sg26
I4
sg27
I4091
ssg28
(dp3041
g23
I42555
sg22
I13
sg15
I3
sg21
I49
sssS'Human,Encode,P,SK-N-SH_RA'
p3042
(dp3043
g3
(dp3044
g5
I735
sg6
I74245
ssg7
(dp3045
g9
I3393
sg10
I69280
sg11
I2307
ssg12
(dp3046
g14
I10
sg15
I6
sg16
I459
sg17
I176
sg18
I1637
sg19
I6551
sg20
I163
sg21
I92
sg22
I41
sg23
I1
sg24
I3912
sg25
I52994
sg26
I9
sg27
I8904
ssg28
(dp3047
g23
I74841
sg22
I41
sg15
I6
sg21
I92
sssS'Human,CCLE,G,CCLE-SKCM'
p3048
(dp3049
g3
(dp3050
g5
I0
sg6
I59713
ssg7
(dp3051
g9
I2058
sg10
I55636
sg11
I2019
ssg12
(dp3052
g14
I14
sg15
I8
sg16
I553
sg17
I264
sg18
I1802
sg19
I9944
sg20
I144
sg21
I197
sg22
I84
sg23
I1
sg24
I3318
sg25
I37157
sg26
I9
sg27
I6176
ssg28
(dp3053
g23
I59424
sg22
I84
sg15
I8
sg21
I197
sssS'Human,Encode,D,HFDPC'
p3054
(dp3055
g3
(dp3056
g5
I235
sg6
I9235
ssg7
(dp3057
g9
I0
sg10
I9469
sg11
I1
ssg12
(dp3058
g14
I0
sg15
I1
sg16
I43
sg17
I19
sg18
I128
sg19
I1007
sg20
I15
sg21
I6
sg22
I4
sg23
I0
sg24
I383
sg25
I7018
sg26
I0
sg27
I841
ssg28
(dp3059
g23
I9459
sg22
I4
sg15
I1
sg21
I6
sssS'Human,Encode,D,HWP'
p3060
(dp3061
g3
(dp3062
g5
I203
sg6
I8612
ssg7
(dp3063
g9
I0
sg10
I8815
sg11
I0
ssg12
(dp3064
g14
I0
sg15
I2
sg16
I32
sg17
I12
sg18
I94
sg19
I581
sg20
I16
sg21
I5
sg22
I3
sg23
I0
sg24
I340
sg25
I6948
sg26
I0
sg27
I781
ssg28
(dp3065
g23
I8805
sg22
I3
sg15
I2
sg21
I5
sssS'Human,Encode,D,H1-hESC'
p3066
(dp3067
g3
(dp3068
g5
I442
sg6
I29301
ssg7
(dp3069
g9
I1
sg10
I29742
sg11
I0
ssg12
(dp3070
g14
I2
sg15
I1
sg16
I120
sg17
I53
sg18
I357
sg19
I1467
sg20
I60
sg21
I20
sg22
I7
sg23
I0
sg24
I1267
sg25
I22968
sg26
I0
sg27
I3418
ssg28
(dp3071
g23
I29715
sg22
I7
sg15
I1
sg21
I20
sssS'Human,Encode,P,NHEM_M2'
p3072
(dp3073
g3
(dp3074
g5
I382
sg6
I25301
ssg7
(dp3075
g9
I1224
sg10
I23659
sg11
I800
ssg12
(dp3076
g14
I4
sg15
I1
sg16
I149
sg17
I55
sg18
I405
sg19
I3150
sg20
I29
sg21
I26
sg22
I9
sg23
I0
sg24
I1217
sg25
I18068
sg26
I3
sg27
I2560
ssg28
(dp3077
g23
I25647
sg22
I9
sg15
I1
sg21
I26
sssS'Human,CCLE,P,CCLE-PAAD'
p3078
(dp3079
g3
(dp3080
g5
I811
sg6
I76538
ssg7
(dp3081
g9
I1550
sg10
I74618
sg11
I1181
ssg12
(dp3082
g14
I12
sg15
I8
sg16
I636
sg17
I337
sg18
I2315
sg19
I11011
sg20
I168
sg21
I125
sg22
I51
sg23
I1
sg24
I4001
sg25
I49281
sg26
I10
sg27
I9354
ssg28
(dp3083
g23
I77165
sg22
I51
sg15
I8
sg21
I125
sssS'Human,Roadmap,G,heart_right_atrium'
p3084
(dp3085
g3
(dp3086
g5
I0
sg6
I42008
ssg7
(dp3087
g9
I1395
sg10
I39681
sg11
I932
ssg12
(dp3088
g14
I5
sg15
I4
sg16
I369
sg17
I133
sg18
I906
sg19
I5060
sg20
I66
sg21
I62
sg22
I31
sg23
I0
sg24
I2128
sg25
I29124
sg26
I8
sg27
I4092
ssg28
(dp3089
g23
I41911
sg22
I31
sg15
I4
sg21
I62
sssS'Human,Roadmap,G,CD3_primary_cells'
p3090
(dp3091
g3
(dp3092
g5
I0
sg6
I146454
ssg7
(dp3093
g9
I6331
sg10
I135671
sg11
I4452
ssg12
(dp3094
g14
I13
sg15
I6
sg16
I551
sg17
I203
sg18
I1556
sg19
I6768
sg20
I136
sg21
I128
sg22
I54
sg23
I0
sg24
I4777
sg25
I122129
sg26
I9
sg27
I10090
ssg28
(dp3095
g23
I146266
sg22
I54
sg15
I6
sg21
I128
sssS'Human,CCLE,P,CCLE-COAD'
p3096
(dp3097
g3
(dp3098
g5
I818
sg6
I84793
ssg7
(dp3099
g9
I1704
sg10
I82642
sg11
I1265
ssg12
(dp3100
g14
I14
sg15
I7
sg16
I708
sg17
I336
sg18
I2424
sg19
I11531
sg20
I195
sg21
I130
sg22
I58
sg23
I0
sg24
I4337
sg25
I55831
sg26
I13
sg27
I9981
ssg28
(dp3101
g23
I85416
sg22
I58
sg15
I7
sg21
I130
sssS'Human,Roadmap,S,thymus'
p3102
(dp3103
g3
(dp3104
g5
I929
sg6
I89791
ssg7
(dp3105
g9
I1375
sg10
I88029
sg11
I1316
ssg12
(dp3106
g14
I12
sg15
I8
sg16
I674
sg17
I253
sg18
I2384
sg19
I10169
sg20
I201
sg21
I196
sg22
I78
sg23
I4
sg24
I4402
sg25
I61522
sg26
I12
sg27
I10756
ssg28
(dp3107
g23
I90438
sg22
I78
sg15
I8
sg21
I196
sssS'Human,CCLE,G,CCLE-DLBC'
p3108
(dp3109
g3
(dp3110
g5
I0
sg6
I90814
ssg7
(dp3111
g9
I3278
sg10
I84135
sg11
I3401
ssg12
(dp3112
g14
I27
sg15
I8
sg16
I690
sg17
I374
sg18
I2579
sg19
I11838
sg20
I253
sg21
I327
sg22
I119
sg23
I4
sg24
I5634
sg25
I58580
sg26
I17
sg27
I10317
ssg28
(dp3113
g23
I90360
sg22
I119
sg15
I8
sg21
I327
sssS'Human,CCLE,G,CCLE-OV'
p3114
(dp3115
g3
(dp3116
g5
I0
sg6
I79053
ssg7
(dp3117
g9
I2882
sg10
I73057
sg11
I3114
ssg12
(dp3118
g14
I24
sg15
I14
sg16
I748
sg17
I385
sg18
I2420
sg19
I13017
sg20
I204
sg21
I307
sg22
I142
sg23
I3
sg24
I4752
sg25
I48408
sg26
I10
sg27
I8567
ssg28
(dp3119
g23
I78590
sg22
I142
sg15
I14
sg21
I307
sssS'Human,SEQC,S,ILM_BGI_B'
p3120
(dp3121
g3
(dp3122
g5
I1811
sg6
I181485
ssg7
(dp3123
g9
I3882
sg10
I175339
sg11
I4075
ssg12
(dp3124
g14
I36
sg15
I19
sg16
I1822
sg17
I821
sg18
I7090
sg19
I34510
sg20
I408
sg21
I449
sg22
I218
sg23
I5
sg24
I9905
sg25
I104994
sg26
I31
sg27
I22866
ssg28
(dp3125
g23
I182610
sg22
I218
sg15
I19
sg21
I449
sssS'Human,SEQC,S,ILM_BGI_C'
p3126
(dp3127
g3
(dp3128
g5
I1627
sg6
I165007
ssg7
(dp3129
g9
I3511
sg10
I159597
sg11
I3526
ssg12
(dp3130
g14
I32
sg15
I20
sg16
I1555
sg17
I715
sg18
I6260
sg19
I29049
sg20
I387
sg21
I425
sg22
I183
sg23
I4
sg24
I9119
sg25
I97565
sg26
I27
sg27
I21194
ssg28
(dp3131
g23
I166006
sg22
I183
sg15
I20
sg21
I425
sssS'Human,SEQC,S,ILM_BGI_A'
p3132
(dp3133
g3
(dp3134
g5
I1503
sg6
I140915
ssg7
(dp3135
g9
I2764
sg10
I137061
sg11
I2593
ssg12
(dp3136
g14
I27
sg15
I17
sg16
I1340
sg17
I600
sg18
I5320
sg19
I24615
sg20
I334
sg21
I340
sg22
I150
sg23
I2
sg24
I7889
sg25
I83271
sg26
I24
sg27
I18404
ssg28
(dp3137
g23
I141911
sg22
I150
sg15
I17
sg21
I340
sssS'Human,SEQC,S,ILM_BGI_D'
p3138
(dp3139
g3
(dp3140
g5
I1637
sg6
I156927
ssg7
(dp3141
g9
I3379
sg10
I151506
sg11
I3679
ssg12
(dp3142
g14
I38
sg15
I18
sg16
I1583
sg17
I780
sg18
I6426
sg19
I31635
sg20
I364
sg21
I434
sg22
I194
sg23
I5
sg24
I8610
sg25
I88365
sg26
I31
sg27
I19979
ssg28
(dp3143
g23
I157918
sg22
I194
sg15
I18
sg21
I434
sssS'Human,SEQC,G,ILM_COH_D'
p3144
(dp3145
g3
(dp3146
g5
I0
sg6
I107704
ssg7
(dp3147
g9
I2545
sg10
I102755
sg11
I2404
ssg12
(dp3148
g14
I27
sg15
I14
sg16
I1107
sg17
I509
sg18
I3800
sg19
I20428
sg20
I261
sg21
I227
sg22
I113
sg23
I1
sg24
I6214
sg25
I63338
sg26
I16
sg27
I11583
ssg28
(dp3149
g23
I107350
sg22
I113
sg15
I14
sg21
I227
sssS'Human,SEQC,G,ILM_COH_B'
p3150
(dp3151
g3
(dp3152
g5
I0
sg6
I106682
ssg7
(dp3153
g9
I2604
sg10
I101728
sg11
I2350
ssg12
(dp3154
g14
I28
sg15
I17
sg16
I1137
sg17
I548
sg18
I3798
sg19
I20744
sg20
I249
sg21
I244
sg22
I112
sg23
I3
sg24
I6195
sg25
I62149
sg26
I17
sg27
I11364
ssg28
(dp3155
g23
I106309
sg22
I112
sg15
I17
sg21
I244
sssS'Human,SEQC,G,ILM_COH_C'
p3156
(dp3157
g3
(dp3158
g5
I0
sg6
I93866
ssg7
(dp3159
g9
I2158
sg10
I89714
sg11
I1994
ssg12
(dp3160
g14
I26
sg15
I14
sg16
I938
sg17
I433
sg18
I3199
sg19
I17243
sg20
I235
sg21
I194
sg22
I105
sg23
I1
sg24
I5451
sg25
I55771
sg26
I14
sg27
I10171
ssg28
(dp3161
g23
I93553
sg22
I105
sg15
I14
sg21
I194
sssS'Human,Encode,P,HOB'
p3162
(dp3163
g3
(dp3164
g5
I771
sg6
I82081
ssg7
(dp3165
g9
I3567
sg10
I76857
sg11
I2428
ssg12
(dp3166
g14
I11
sg15
I6
sg16
I353
sg17
I139
sg18
I1094
sg19
I6042
sg20
I97
sg21
I65
sg22
I39
sg23
I0
sg24
I3541
sg25
I63595
sg26
I11
sg27
I7833
ssg28
(dp3167
g23
I82742
sg22
I39
sg15
I6
sg21
I65
sssS'Human,SEQC,G,ILM_COH_A'
p3168
(dp3169
g3
(dp3170
g5
I0
sg6
I83270
ssg7
(dp3171
g9
I1834
sg10
I79884
sg11
I1552
ssg12
(dp3172
g14
I20
sg15
I12
sg16
I849
sg17
I362
sg18
I2804
sg19
I14883
sg20
I233
sg21
I189
sg22
I91
sg23
I1
sg24
I4979
sg25
I49776
sg26
I17
sg27
I9006
ssg28
(dp3173
g23
I82978
sg22
I91
sg15
I12
sg21
I189
sssS'Human,CCLE,D,CCLE-HNSC'
p3174
(dp3175
g3
(dp3176
g5
I338
sg6
I20110
ssg7
(dp3177
g9
I1
sg10
I20446
sg11
I1
ssg12
(dp3178
g14
I2
sg15
I2
sg16
I124
sg17
I71
sg18
I417
sg19
I1587
sg20
I52
sg21
I21
sg22
I3
sg23
I0
sg24
I1062
sg25
I14727
sg26
I1
sg27
I2373
ssg28
(dp3179
g23
I20422
sg22
I3
sg15
I2
sg21
I21
sssS'Human,CCLE,G,CCLE-BRCA'
p3180
(dp3181
g3
(dp3182
g5
I0
sg6
I100963
ssg7
(dp3183
g9
I3379
sg10
I94105
sg11
I3479
ssg12
(dp3184
g14
I29
sg15
I9
sg16
I853
sg17
I496
sg18
I2705
sg19
I13029
sg20
I258
sg21
I331
sg22
I126
sg23
I3
sg24
I5955
sg25
I66566
sg26
I19
sg27
I10527
ssg28
(dp3185
g23
I100497
sg22
I126
sg15
I9
sg21
I331
sssS'Human,Encode,D,hMSC-UC'
p3186
(dp3187
g3
(dp3188
g5
I235
sg6
I8994
ssg7
(dp3189
g9
I0
sg10
I9229
sg11
I0
ssg12
(dp3190
g14
I0
sg15
I1
sg16
I43
sg17
I15
sg18
I121
sg19
I807
sg20
I24
sg21
I2
sg22
I3
sg23
I0
sg24
I357
sg25
I6988
sg26
I0
sg27
I865
ssg28
(dp3191
g23
I9223
sg22
I3
sg15
I1
sg21
I2
sssS'Human,Encode,D,GM12878'
p3192
(dp3193
g3
(dp3194
g5
I677
sg6
I47304
ssg7
(dp3195
g9
I2
sg10
I47978
sg11
I1
ssg12
(dp3196
g14
I1
sg15
I2
sg16
I128
sg17
I62
sg18
I451
sg19
I1547
sg20
I81
sg21
I25
sg22
I9
sg23
I0
sg24
I2094
sg25
I38204
sg26
I0
sg27
I5371
ssg28
(dp3197
g23
I47945
sg22
I9
sg15
I2
sg21
I25
sssS'Human,HumanBodyMap,S,thyroid'
p3198
(dp3199
g3
(dp3200
g5
I310
sg6
I6954
ssg7
(dp3201
g9
I220
sg10
I6742
sg11
I302
ssg12
(dp3202
g14
I2
sg15
I0
sg16
I132
sg17
I28
sg18
I314
sg19
I3111
sg20
I8
sg21
I24
sg22
I9
sg23
I0
sg24
I358
sg25
I2338
sg26
I2
sg27
I931
ssg28
(dp3203
g23
I7231
sg22
I9
sg15
I0
sg21
I24
sssS'Human,ABRF,G,ABRF-ILMN-RIBO-C'
p3204
(dp3205
g3
(dp3206
g5
I0
sg6
I21411
ssg7
(dp3207
g9
I1385
sg10
I18875
sg11
I1151
ssg12
(dp3208
g14
I3
sg15
I4
sg16
I96
sg17
I27
sg18
I332
sg19
I1692
sg20
I12
sg21
I25
sg22
I11
sg23
I0
sg24
I824
sg25
I16607
sg26
I1
sg27
I1766
ssg28
(dp3209
g23
I21371
sg22
I11
sg15
I4
sg21
I25
sssS'Human,Roadmap,P,H1_cell_line'
p3210
(dp3211
g3
(dp3212
g5
I694
sg6
I65135
ssg7
(dp3213
g9
I1494
sg10
I63297
sg11
I1038
ssg12
(dp3214
g14
I9
sg15
I7
sg16
I507
sg17
I174
sg18
I1470
sg19
I7315
sg20
I119
sg21
I85
sg22
I30
sg23
I0
sg24
I3598
sg25
I44654
sg26
I8
sg27
I7824
ssg28
(dp3215
g23
I65707
sg22
I30
sg15
I7
sg21
I85
sssS'Human,Roadmap,D,esophagus'
p3216
(dp3217
g3
(dp3218
g5
I135
sg6
I10070
ssg7
(dp3219
g9
I1
sg10
I10204
sg11
I0
ssg12
(dp3220
g14
I1
sg15
I0
sg16
I66
sg17
I31
sg18
I202
sg19
I1049
sg20
I19
sg21
I9
sg22
I4
sg23
I0
sg24
I436
sg25
I7367
sg26
I1
sg27
I1015
ssg28
(dp3221
g23
I10192
sg22
I4
sg15
I0
sg21
I9
sssS'Human,Roadmap,D,muscle_leg'
p3222
(dp3223
g3
(dp3224
g5
I227
sg6
I11899
ssg7
(dp3225
g9
I0
sg10
I12126
sg11
I0
ssg12
(dp3226
g14
I1
sg15
I1
sg16
I46
sg17
I26
sg18
I138
sg19
I664
sg20
I14
sg21
I5
sg22
I1
sg23
I0
sg24
I480
sg25
I9595
sg26
I0
sg27
I1151
ssg28
(dp3227
g23
I12119
sg22
I1
sg15
I1
sg21
I5
sssS'Human,HumanBodyMap,S,testes'
p3228
(dp3229
g3
(dp3230
g5
I387
sg6
I7146
ssg7
(dp3231
g9
I282
sg10
I6938
sg11
I313
ssg12
(dp3232
g14
I4
sg15
I0
sg16
I123
sg17
I16
sg18
I378
sg19
I3727
sg20
I13
sg21
I25
sg22
I8
sg23
I0
sg24
I392
sg25
I2010
sg26
I1
sg27
I828
ssg28
(dp3233
g23
I7500
sg22
I8
sg15
I0
sg21
I25
sssS'Human,Encode,D,HAoEC'
p3234
(dp3235
g3
(dp3236
g5
I343
sg6
I13582
ssg7
(dp3237
g9
I0
sg10
I13925
sg11
I0
ssg12
(dp3238
g14
I0
sg15
I0
sg16
I32
sg17
I19
sg18
I105
sg19
I598
sg20
I19
sg21
I7
sg22
I3
sg23
I0
sg24
I485
sg25
I11611
sg26
I0
sg27
I1045
ssg28
(dp3239
g23
I13915
sg22
I3
sg15
I0
sg21
I7
sssS'Human,Roadmap,S,CD56_primary_cells'
p3240
(dp3241
g3
(dp3242
g5
I1108
sg6
I164081
ssg7
(dp3243
g9
I7996
sg10
I151995
sg11
I5198
ssg12
(dp3244
g14
I10
sg15
I4
sg16
I506
sg17
I198
sg18
I1591
sg19
I5908
sg20
I122
sg21
I89
sg22
I42
sg23
I1
sg24
I5038
sg25
I137925
sg26
I10
sg27
I13719
ssg28
(dp3245
g23
I165054
sg22
I42
sg15
I4
sg21
I89
sssS'Human,Encode,S,HepG2'
p3246
(dp3247
g3
(dp3248
g5
I986
sg6
I126182
ssg7
(dp3249
g9
I3997
sg10
I119915
sg11
I3256
ssg12
(dp3250
g14
I11
sg15
I6
sg16
I538
sg17
I267
sg18
I1976
sg19
I7852
sg20
I222
sg21
I122
sg22
I74
sg23
I2
sg24
I6253
sg25
I95525
sg26
I8
sg27
I14280
ssg28
(dp3251
g23
I126966
sg22
I74
sg15
I6
sg21
I122
sssS'Human,GEUV,D,CEU'
p3252
(dp3253
g3
(dp3254
g5
I332
sg6
I30011
ssg7
(dp3255
g9
I3
sg10
I30340
sg11
I0
ssg12
(dp3256
g14
I2
sg15
I6
sg16
I180
sg17
I101
sg18
I652
sg19
I2783
sg20
I64
sg21
I42
sg22
I14
sg23
I0
sg24
I1543
sg25
I20888
sg26
I1
sg27
I4057
ssg28
(dp3257
g23
I30281
sg22
I14
sg15
I6
sg21
I42
sssS'Human,Encode,G,HWP'
p3258
(dp3259
g3
(dp3260
g5
I0
sg6
I50967
ssg7
(dp3261
g9
I2266
sg10
I47177
sg11
I1524
ssg12
(dp3262
g14
I4
sg15
I4
sg16
I209
sg17
I84
sg18
I609
sg19
I3419
sg20
I64
sg21
I33
sg22
I13
sg23
I0
sg24
I2289
sg25
I40298
sg26
I4
sg27
I3926
ssg28
(dp3263
g23
I50917
sg22
I13
sg15
I4
sg21
I33
sssS'Human,Encode,G,H1-hESC'
p3264
(dp3265
g3
(dp3266
g5
I0
sg6
I154726
ssg7
(dp3267
g9
I6796
sg10
I143254
sg11
I4676
ssg12
(dp3268
g14
I12
sg15
I6
sg16
I746
sg17
I308
sg18
I2162
sg19
I9470
sg20
I287
sg21
I227
sg22
I98
sg23
I0
sg24
I7495
sg25
I118973
sg26
I12
sg27
I14900
ssg28
(dp3269
g23
I154395
sg22
I98
sg15
I6
sg21
I227
sssS'Human,SEQC,D,ILM_AGR_D'
p3270
(dp3271
g3
(dp3272
g5
I629
sg6
I62315
ssg7
(dp3273
g9
I3
sg10
I62941
sg11
I0
ssg12
(dp3274
g14
I5
sg15
I11
sg16
I408
sg17
I191
sg18
I1348
sg19
I4086
sg20
I140
sg21
I78
sg22
I32
sg23
I3
sg24
I3637
sg25
I44812
sg26
I5
sg27
I8165
ssg28
(dp3275
g23
I62823
sg22
I32
sg15
I11
sg21
I78
sssS'Human,SEQC,D,ILM_AGR_A'
p3276
(dp3277
g3
(dp3278
g5
I440
sg6
I41883
ssg7
(dp3279
g9
I1
sg10
I42322
sg11
I0
ssg12
(dp3280
g14
I2
sg15
I6
sg16
I248
sg17
I111
sg18
I910
sg19
I3016
sg20
I107
sg21
I54
sg22
I18
sg23
I0
sg24
I2405
sg25
I29811
sg26
I2
sg27
I5620
ssg28
(dp3281
g23
I42245
sg22
I18
sg15
I6
sg21
I54
sssS'Human,SEQC,D,ILM_AGR_C'
p3282
(dp3283
g3
(dp3284
g5
I559
sg6
I51552
ssg7
(dp3285
g9
I4
sg10
I52107
sg11
I0
ssg12
(dp3286
g14
I5
sg15
I7
sg16
I310
sg17
I147
sg18
I1132
sg19
I3582
sg20
I118
sg21
I75
sg22
I25
sg23
I0
sg24
I2943
sg25
I36903
sg26
I3
sg27
I6847
ssg28
(dp3287
g23
I52004
sg22
I25
sg15
I7
sg21
I75
sssS'Human,SEQC,D,ILM_AGR_B'
p3288
(dp3289
g3
(dp3290
g5
I627
sg6
I69998
ssg7
(dp3291
g9
I8
sg10
I70617
sg11
I0
ssg12
(dp3292
g14
I4
sg15
I6
sg16
I419
sg17
I177
sg18
I1417
sg19
I4354
sg20
I149
sg21
I77
sg22
I31
sg23
I2
sg24
I4043
sg25
I50819
sg26
I7
sg27
I9101
ssg28
(dp3293
g23
I70511
sg22
I31
sg15
I6
sg21
I77
sssS'Human,Roadmap,D,heart_aorta'
p3294
(dp3295
g3
(dp3296
g5
I112
sg6
I12869
ssg7
(dp3297
g9
I2
sg10
I12979
sg11
I0
ssg12
(dp3298
g14
I0
sg15
I0
sg16
I77
sg17
I35
sg18
I219
sg19
I1048
sg20
I14
sg21
I10
sg22
I4
sg23
I0
sg24
I551
sg25
I9605
sg26
I0
sg27
I1410
ssg28
(dp3299
g23
I12967
sg22
I4
sg15
I0
sg21
I10
sssS'Human,Roadmap,D,lung'
p3300
(dp3301
g3
(dp3302
g5
I186
sg6
I11480
ssg7
(dp3303
g9
I0
sg10
I11666
sg11
I0
ssg12
(dp3304
g14
I0
sg15
I0
sg16
I96
sg17
I33
sg18
I250
sg19
I1577
sg20
I17
sg21
I11
sg22
I7
sg23
I0
sg24
I530
sg25
I7911
sg26
I0
sg27
I1229
ssg28
(dp3305
g23
I11648
sg22
I7
sg15
I0
sg21
I11
sssS'Human,CCLE,P,CCLE-OV'
p3306
(dp3307
g3
(dp3308
g5
I829
sg6
I76691
ssg7
(dp3309
g9
I1693
sg10
I74397
sg11
I1430
ssg12
(dp3310
g14
I12
sg15
I10
sg16
I684
sg17
I323
sg18
I2485
sg19
I12361
sg20
I180
sg21
I141
sg22
I66
sg23
I2
sg24
I4126
sg25
I47736
sg26
I12
sg27
I9339
ssg28
(dp3311
g23
I77303
sg22
I66
sg15
I10
sg21
I141
sssS'Human,CCLE,S,CCLE-KIRC'
p3312
(dp3313
g3
(dp3314
g5
I647
sg6
I46810
ssg7
(dp3315
g9
I1370
sg10
I43858
sg11
I2229
ssg12
(dp3316
g14
I12
sg15
I8
sg16
I459
sg17
I268
sg18
I1647
sg19
I9413
sg20
I122
sg21
I354
sg22
I126
sg23
I3
sg24
I2411
sg25
I26857
sg26
I6
sg27
I5732
ssg28
(dp3317
g23
I46969
sg22
I126
sg15
I8
sg21
I354
sssS'Human,Encode,S,Monocytes-CD14+'
p3318
(dp3319
g3
(dp3320
g5
I808
sg6
I77129
ssg7
(dp3321
g9
I2784
sg10
I72720
sg11
I2433
ssg12
(dp3322
g14
I9
sg15
I5
sg16
I327
sg17
I197
sg18
I1365
sg19
I6711
sg20
I142
sg21
I97
sg22
I45
sg23
I0
sg24
I2644
sg25
I60022
sg26
I10
sg27
I6340
ssg28
(dp3323
g23
I77790
sg22
I45
sg15
I5
sg21
I97
sssS'Human,Encode,D,HCH'
p3324
(dp3325
g3
(dp3326
g5
I318
sg6
I14997
ssg7
(dp3327
g9
I0
sg10
I15315
sg11
I0
ssg12
(dp3328
g14
I0
sg15
I1
sg16
I58
sg17
I22
sg18
I145
sg19
I1001
sg20
I25
sg21
I6
sg22
I1
sg23
I0
sg24
I614
sg25
I11959
sg26
I0
sg27
I1479
ssg28
(dp3329
g23
I15307
sg22
I1
sg15
I1
sg21
I6
sssS'Human,Roadmap,G,CD19_primary_cells'
p3330
(dp3331
g3
(dp3332
g5
I0
sg6
I132245
ssg7
(dp3333
g9
I7127
sg10
I120394
sg11
I4724
ssg12
(dp3334
g14
I9
sg15
I6
sg16
I440
sg17
I196
sg18
I1396
sg19
I5279
sg20
I118
sg21
I116
sg22
I53
sg23
I1
sg24
I4310
sg25
I110888
sg26
I7
sg27
I9395
ssg28
(dp3335
g23
I132070
sg22
I53
sg15
I6
sg21
I116
sssS'Human,Roadmap,D,CD14_primary_cells'
p3336
(dp3337
g3
(dp3338
g5
I213
sg6
I11874
ssg7
(dp3339
g9
I0
sg10
I12087
sg11
I0
ssg12
(dp3340
g14
I0
sg15
I1
sg16
I47
sg17
I16
sg18
I118
sg19
I679
sg20
I10
sg21
I4
sg22
I2
sg23
I0
sg24
I397
sg25
I9919
sg26
I0
sg27
I893
ssg28
(dp3341
g23
I12080
sg22
I2
sg15
I1
sg21
I4
sssS'Human,Encode,G,Monocytes-CD14+'
p3342
(dp3343
g3
(dp3344
g5
I0
sg6
I74207
ssg7
(dp3345
g9
I2871
sg10
I68826
sg11
I2510
ssg12
(dp3346
g14
I9
sg15
I5
sg16
I323
sg17
I192
sg18
I1187
sg19
I6172
sg20
I139
sg21
I83
sg22
I42
sg23
I0
sg24
I2670
sg25
I58334
sg26
I8
sg27
I5024
ssg28
(dp3347
g23
I74077
sg22
I42
sg15
I5
sg21
I83
sssS'Human,Encode,G,A549'
p3348
(dp3349
g3
(dp3350
g5
I0
sg6
I136323
ssg7
(dp3351
g9
I4037
sg10
I128742
sg11
I3544
ssg12
(dp3352
g14
I11
sg15
I7
sg16
I698
sg17
I305
sg18
I1946
sg19
I8604
sg20
I314
sg21
I152
sg22
I70
sg23
I2
sg24
I6796
sg25
I105724
sg26
I12
sg27
I11657
ssg28
(dp3353
g23
I136094
sg22
I70
sg15
I7
sg21
I152
sssS'Human,Encode,S,HPC-PL'
p3354
(dp3355
g3
(dp3356
g5
I580
sg6
I47331
ssg7
(dp3357
g9
I2028
sg10
I44300
sg11
I1583
ssg12
(dp3358
g14
I5
sg15
I4
sg16
I228
sg17
I85
sg18
I693
sg19
I4940
sg20
I54
sg21
I52
sg22
I22
sg23
I0
sg24
I1883
sg25
I35546
sg26
I6
sg27
I4376
ssg28
(dp3359
g23
I47833
sg22
I22
sg15
I4
sg21
I52
sssS'Human,HumanBodyMap,P,adrenal'
p3360
(dp3361
g3
(dp3362
g5
I342
sg6
I11182
ssg7
(dp3363
g9
I428
sg10
I10609
sg11
I487
ssg12
(dp3364
g14
I1
sg15
I1
sg16
I132
sg17
I38
sg18
I432
sg19
I3265
sg20
I25
sg21
I66
sg22
I25
sg23
I2
sg24
I449
sg25
I5813
sg26
I2
sg27
I1266
ssg28
(dp3365
g23
I11432
sg22
I25
sg15
I1
sg21
I66
sssS'Human,ABRF,S,ABRF-ILMN-N-AR'
p3366
(dp3367
g3
(dp3368
g5
I646
sg6
I58207
ssg7
(dp3369
g9
I994
sg10
I56931
sg11
I928
ssg12
(dp3370
g14
I6
sg15
I4
sg16
I228
sg17
I94
sg18
I914
sg19
I4104
sg20
I70
sg21
I54
sg22
I27
sg23
I0
sg24
I2250
sg25
I45902
sg26
I4
sg27
I5183
ssg28
(dp3371
g23
I58768
sg22
I27
sg15
I4
sg21
I54
sssS'Human,Encode,P,SK-N-SH'
p3372
(dp3373
g3
(dp3374
g5
I1084
sg6
I155133
ssg7
(dp3375
g9
I3580
sg10
I149924
sg11
I2713
ssg12
(dp3376
g14
I15
sg15
I10
sg16
I803
sg17
I399
sg18
I2684
sg19
I8345
sg20
I389
sg21
I138
sg22
I71
sg23
I1
sg24
I8911
sg25
I115435
sg26
I10
sg27
I18969
ssg28
(dp3377
g23
I155998
sg22
I71
sg15
I10
sg21
I138
sssS'Human,Roadmap,G,H1_cell_line'
p3378
(dp3379
g3
(dp3380
g5
I0
sg6
I63348
ssg7
(dp3381
g9
I2052
sg10
I59999
sg11
I1297
ssg12
(dp3382
g14
I10
sg15
I6
sg16
I485
sg17
I165
sg18
I1260
sg19
I6872
sg20
I118
sg21
I87
sg22
I27
sg23
I0
sg24
I3705
sg25
I43717
sg26
I7
sg27
I6860
ssg28
(dp3383
g23
I63228
sg22
I27
sg15
I6
sg21
I87
sssS'Human,Encode,P,HSaVEC'
p3384
(dp3385
g3
(dp3386
g5
I484
sg6
I47613
ssg7
(dp3387
g9
I1917
sg10
I44574
sg11
I1606
ssg12
(dp3388
g14
I5
sg15
I2
sg16
I195
sg17
I95
sg18
I669
sg19
I3574
sg20
I43
sg21
I51
sg22
I23
sg23
I1
sg24
I1835
sg25
I37353
sg26
I3
sg27
I4236
ssg28
(dp3389
g23
I48021
sg22
I23
sg15
I2
sg21
I51
sssS'Human,Encode,S,H1-hESC'
p3390
(dp3391
g3
(dp3392
g5
I1189
sg6
I160184
ssg7
(dp3393
g9
I5926
sg10
I151236
sg11
I4211
ssg12
(dp3394
g14
I11
sg15
I6
sg16
I772
sg17
I321
sg18
I2550
sg19
I10232
sg20
I273
sg21
I214
sg22
I91
sg23
I1
sg24
I7336
sg25
I122092
sg26
I14
sg27
I17428
ssg28
(dp3395
g23
I161062
sg22
I91
sg15
I6
sg21
I214
sssS'Human,Roadmap,S,ovary'
p3396
(dp3397
g3
(dp3398
g5
I878
sg6
I56946
ssg7
(dp3399
g9
I1692
sg10
I54884
sg11
I1248
ssg12
(dp3400
g14
I14
sg15
I5
sg16
I637
sg17
I224
sg18
I2151
sg19
I10655
sg20
I177
sg21
I150
sg22
I60
sg23
I1
sg24
I3325
sg25
I32911
sg26
I16
sg27
I7456
ssg28
(dp3401
g23
I57609
sg22
I60
sg15
I5
sg21
I150
sssS'Human,SEQC,P,ILM_NYG_B'
p3402
(dp3403
g3
(dp3404
g5
I1312
sg6
I125300
ssg7
(dp3405
g9
I2893
sg10
I120821
sg11
I2898
ssg12
(dp3406
g14
I26
sg15
I10
sg16
I1265
sg17
I600
sg18
I5160
sg19
I20525
sg20
I304
sg21
I274
sg22
I120
sg23
I4
sg24
I7784
sg25
I73500
sg26
I23
sg27
I16936
ssg28
(dp3407
g23
I126208
sg22
I120
sg15
I10
sg21
I274
sssS'Human,HumanBodyMap,G,testes'
p3408
(dp3409
g3
(dp3410
g5
I0
sg6
I6657
ssg7
(dp3411
g9
I239
sg10
I6137
sg11
I281
ssg12
(dp3412
g14
I4
sg15
I0
sg16
I115
sg17
I16
sg18
I296
sg19
I3286
sg20
I13
sg21
I22
sg22
I8
sg23
I0
sg24
I370
sg25
I1882
sg26
I1
sg27
I635
ssg28
(dp3413
g23
I6627
sg22
I8
sg15
I0
sg21
I22
sssS'Human,CCLE,S,CCLE-STAD'
p3414
(dp3415
g3
(dp3416
g5
I764
sg6
I77498
ssg7
(dp3417
g9
I2290
sg10
I71932
sg11
I4040
ssg12
(dp3418
g14
I14
sg15
I9
sg16
I612
sg17
I394
sg18
I2288
sg19
I11387
sg20
I186
sg21
I718
sg22
I233
sg23
I3
sg24
I3890
sg25
I49202
sg26
I13
sg27
I9268
ssg28
(dp3419
g23
I77302
sg22
I233
sg15
I9
sg21
I718
sssS'Human,Roadmap,D,placenta_day113_F'
p3420
(dp3421
g3
(dp3422
g5
I179
sg6
I11256
ssg7
(dp3423
g9
I0
sg10
I11435
sg11
I0
ssg12
(dp3424
g14
I0
sg15
I1
sg16
I44
sg17
I20
sg18
I117
sg19
I658
sg20
I7
sg21
I6
sg22
I2
sg23
I0
sg24
I371
sg25
I9185
sg26
I0
sg27
I1022
ssg28
(dp3425
g23
I11426
sg22
I2
sg15
I1
sg21
I6
sssS'Human,SEQC,P,ILM_NYG_D'
p3426
(dp3427
g3
(dp3428
g5
I1292
sg6
I126728
ssg7
(dp3429
g9
I2875
sg10
I122344
sg11
I2801
ssg12
(dp3430
g14
I30
sg15
I13
sg16
I1227
sg17
I584
sg18
I5162
sg19
I20226
sg20
I344
sg21
I279
sg22
I132
sg23
I2
sg24
I7901
sg25
I74875
sg26
I22
sg27
I17135
ssg28
(dp3431
g23
I127596
sg22
I132
sg15
I13
sg21
I279
sssS'Human,Roadmap,P,psoas_muscle'
p3432
(dp3433
g3
(dp3434
g5
I410
sg6
I29883
ssg7
(dp3435
g9
I971
sg10
I27973
sg11
I1349
ssg12
(dp3436
g14
I5
sg15
I3
sg16
I290
sg17
I124
sg18
I912
sg19
I4339
sg20
I58
sg21
I112
sg22
I50
sg23
I0
sg24
I1671
sg25
I19015
sg26
I5
sg27
I3694
ssg28
(dp3437
g23
I30128
sg22
I50
sg15
I3
sg21
I112
sssS'Human,Encode,P,HUVEC'
p3438
(dp3439
g3
(dp3440
g5
I1101
sg6
I155340
ssg7
(dp3441
g9
I6049
sg10
I145787
sg11
I4605
ssg12
(dp3442
g14
I6
sg15
I6
sg16
I559
sg17
I292
sg18
I1959
sg19
I7260
sg20
I244
sg21
I132
sg22
I62
sg23
I2
sg24
I6797
sg25
I123808
sg26
I9
sg27
I15276
ssg28
(dp3443
g23
I156241
sg22
I62
sg15
I6
sg21
I132
sssS'Human,Roadmap,G,spleen'
p3444
(dp3445
g3
(dp3446
g5
I0
sg6
I130510
ssg7
(dp3447
g9
I2142
sg10
I126350
sg11
I2018
ssg12
(dp3448
g14
I15
sg15
I9
sg16
I830
sg17
I294
sg18
I2511
sg19
I12167
sg20
I197
sg21
I248
sg22
I103
sg23
I5
sg24
I5980
sg25
I96527
sg26
I17
sg27
I11559
ssg28
(dp3449
g23
I130150
sg22
I103
sg15
I9
sg21
I248
sssS'Human,Encode,S,GM12892'
p3450
(dp3451
g3
(dp3452
g5
I653
sg6
I44661
ssg7
(dp3453
g9
I1253
sg10
I42946
sg11
I1115
ssg12
(dp3454
g14
I3
sg15
I3
sg16
I290
sg17
I159
sg18
I1209
sg19
I5921
sg20
I107
sg21
I71
sg22
I37
sg23
I1
sg24
I1800
sg25
I30570
sg26
I8
sg27
I5117
ssg28
(dp3455
g23
I45203
sg22
I37
sg15
I3
sg21
I71
sssS'Human,Roadmap,P,ovary'
p3456
(dp3457
g3
(dp3458
g5
I884
sg6
I59513
ssg7
(dp3459
g9
I1773
sg10
I57286
sg11
I1338
ssg12
(dp3460
g14
I16
sg15
I4
sg16
I667
sg17
I232
sg18
I2222
sg19
I10683
sg20
I189
sg21
I144
sg22
I63
sg23
I0
sg24
I3566
sg25
I34591
sg26
I19
sg27
I7959
ssg28
(dp3461
g23
I60186
sg22
I63
sg15
I4
sg21
I144
sssS'Human,Encode,S,GM12891'
p3462
(dp3463
g3
(dp3464
g5
I307
sg6
I11928
ssg7
(dp3465
g9
I279
sg10
I11670
sg11
I286
ssg12
(dp3466
g14
I2
sg15
I1
sg16
I93
sg17
I51
sg18
I414
sg19
I2318
sg20
I35
sg21
I21
sg22
I8
sg23
I0
sg24
I495
sg25
I7364
sg26
I2
sg27
I1427
ssg28
(dp3467
g23
I12205
sg22
I8
sg15
I1
sg21
I21
sssS'Human,SEQC,G,ILM_CNL_A'
p3468
(dp3469
g3
(dp3470
g5
I0
sg6
I122031
ssg7
(dp3471
g9
I2406
sg10
I117620
sg11
I2005
ssg12
(dp3472
g14
I27
sg15
I17
sg16
I1164
sg17
I496
sg18
I3908
sg19
I20601
sg20
I275
sg21
I252
sg22
I124
sg23
I2
sg24
I7156
sg25
I74744
sg26
I15
sg27
I13181
ssg28
(dp3473
g23
I121638
sg22
I124
sg15
I17
sg21
I252
sssS'Human,SEQC,G,ILM_CNL_C'
p3474
(dp3475
g3
(dp3476
g5
I0
sg6
I150391
ssg7
(dp3477
g9
I3121
sg10
I144512
sg11
I2758
ssg12
(dp3478
g14
I31
sg15
I21
sg16
I1385
sg17
I615
sg18
I4688
sg19
I24623
sg20
I362
sg21
I305
sg22
I148
sg23
I2
sg24
I8618
sg25
I93402
sg26
I21
sg27
I16076
ssg28
(dp3479
g23
I149917
sg22
I148
sg15
I21
sg21
I305
sssS'Human,SEQC,G,ILM_CNL_B'
p3480
(dp3481
g3
(dp3482
g5
I0
sg6
I151174
ssg7
(dp3483
g9
I3334
sg10
I144737
sg11
I3103
ssg12
(dp3484
g14
I33
sg15
I19
sg16
I1517
sg17
I676
sg18
I4889
sg19
I26844
sg20
I347
sg21
I290
sg22
I156
sg23
I2
sg24
I8732
sg25
I91534
sg26
I19
sg27
I16020
ssg28
(dp3485
g23
I150709
sg22
I156
sg15
I19
sg21
I290
sssS'Human,SEQC,G,ILM_CNL_D'
p3486
(dp3487
g3
(dp3488
g5
I0
sg6
I151951
ssg7
(dp3489
g9
I3342
sg10
I145529
sg11
I3080
ssg12
(dp3490
g14
I37
sg15
I19
sg16
I1495
sg17
I678
sg18
I4945
sg19
I26375
sg20
I325
sg21
I316
sg22
I170
sg23
I3
sg24
I8674
sg25
I92602
sg26
I22
sg27
I16204
ssg28
(dp3491
g23
I151446
sg22
I170
sg15
I19
sg21
I316
sssS'Human,Roadmap,P,H1_derived_neuronal_progenitor_cultured_cells'
p3492
(dp3493
g3
(dp3494
g5
I704
sg6
I70062
ssg7
(dp3495
g9
I1360
sg10
I68490
sg11
I916
ssg12
(dp3496
g14
I10
sg15
I6
sg16
I553
sg17
I237
sg18
I1713
sg19
I6729
sg20
I145
sg21
I81
sg22
I40
sg23
I0
sg24
I4205
sg25
I48437
sg26
I10
sg27
I8575
ssg28
(dp3497
g23
I70639
sg22
I40
sg15
I6
sg21
I81
sssS'Human,SEQC,P,ILM_MAY_C'
p3498
(dp3499
g3
(dp3500
g5
I1413
sg6
I140542
ssg7
(dp3501
g9
I3281
sg10
I135689
sg11
I2985
ssg12
(dp3502
g14
I29
sg15
I12
sg16
I1266
sg17
I576
sg18
I5156
sg19
I22343
sg20
I354
sg21
I305
sg22
I132
sg23
I4
sg24
I8523
sg25
I84705
sg26
I23
sg27
I18439
ssg28
(dp3503
g23
I141506
sg22
I132
sg15
I12
sg21
I305
sssS'Human,Encode,P,HFDPC'
p3504
(dp3505
g3
(dp3506
g5
I676
sg6
I62706
ssg7
(dp3507
g9
I2787
sg10
I58373
sg11
I2222
ssg12
(dp3508
g14
I4
sg15
I3
sg16
I328
sg17
I116
sg18
I1001
sg19
I6536
sg20
I83
sg21
I63
sg22
I33
sg23
I1
sg24
I2781
sg25
I46656
sg26
I9
sg27
I5744
ssg28
(dp3509
g23
I63283
sg22
I33
sg15
I3
sg21
I63
sssS'Human,Roadmap,D,pancreas'
p3510
(dp3511
g3
(dp3512
g5
I220
sg6
I19034
ssg7
(dp3513
g9
I0
sg10
I19254
sg11
I0
ssg12
(dp3514
g14
I1
sg15
I0
sg16
I100
sg17
I37
sg18
I299
sg19
I1241
sg20
I39
sg21
I12
sg22
I8
sg23
I0
sg24
I861
sg25
I14673
sg26
I0
sg27
I1976
ssg28
(dp3515
g23
I19234
sg22
I8
sg15
I0
sg21
I12
sssS'Human,SEQC,S,ILM_NYG_B'
p3516
(dp3517
g3
(dp3518
g5
I1265
sg6
I98671
ssg7
(dp3519
g9
I2042
sg10
I95563
sg11
I2331
ssg12
(dp3520
g14
I27
sg15
I11
sg16
I1120
sg17
I537
sg18
I4584
sg19
I22304
sg20
I235
sg21
I287
sg22
I137
sg23
I4
sg24
I5564
sg25
I52191
sg26
I22
sg27
I12841
ssg28
(dp3521
g23
I99501
sg22
I137
sg15
I11
sg21
I287
sssS'Human,Encode,G,IMR90'
p3522
(dp3523
g3
(dp3524
g5
I0
sg6
I149105
ssg7
(dp3525
g9
I5073
sg10
I140028
sg11
I4004
ssg12
(dp3526
g14
I18
sg15
I9
sg16
I673
sg17
I400
sg18
I2071
sg19
I8122
sg20
I316
sg21
I140
sg22
I67
sg23
I2
sg24
I7106
sg25
I117476
sg26
I14
sg27
I12644
ssg28
(dp3527
g23
I148889
sg22
I67
sg15
I9
sg21
I140
sssS'Human,Encode,D,CD34+_Mobilized'
p3528
(dp3529
g3
(dp3530
g5
I360
sg6
I16102
ssg7
(dp3531
g9
I0
sg10
I16462
sg11
I0
ssg12
(dp3532
g14
I1
sg15
I0
sg16
I57
sg17
I25
sg18
I179
sg19
I930
sg20
I24
sg21
I7
sg22
I2
sg23
I0
sg24
I642
sg25
I13044
sg26
I0
sg27
I1548
ssg28
(dp3533
g23
I16453
sg22
I2
sg15
I0
sg21
I7
sssS'Human,ABRF,G,ABRF-ILMN-M-AS'
p3534
(dp3535
g3
(dp3536
g5
I0
sg6
I51931
ssg7
(dp3537
g9
I998
sg10
I50062
sg11
I871
ssg12
(dp3538
g14
I3
sg15
I4
sg16
I206
sg17
I82
sg18
I678
sg19
I3389
sg20
I62
sg21
I40
sg22
I14
sg23
I0
sg24
I1907
sg25
I41572
sg26
I2
sg27
I3960
ssg28
(dp3539
g23
I51873
sg22
I14
sg15
I4
sg21
I40
sssS'Human,Encode,P,HepG2'
p3540
(dp3541
g3
(dp3542
g5
I1055
sg6
I139547
ssg7
(dp3543
g9
I4467
sg10
I132310
sg11
I3825
ssg12
(dp3544
g14
I10
sg15
I6
sg16
I583
sg17
I278
sg18
I2047
sg19
I7778
sg20
I262
sg21
I111
sg22
I67
sg23
I2
sg24
I7334
sg25
I105486
sg26
I9
sg27
I16595
ssg28
(dp3545
g23
I140418
sg22
I67
sg15
I6
sg21
I111
sssS'Human,Roadmap,P,CD8_primary_cells'
p3546
(dp3547
g3
(dp3548
g5
I940
sg6
I114709
ssg7
(dp3549
g9
I4283
sg10
I108242
sg11
I3124
ssg12
(dp3550
g14
I9
sg15
I7
sg16
I680
sg17
I256
sg18
I1995
sg19
I8266
sg20
I191
sg21
I100
sg22
I60
sg23
I0
sg24
I4766
sg25
I87448
sg26
I15
sg27
I11812
ssg28
(dp3551
g23
I115482
sg22
I60
sg15
I7
sg21
I100
sssS'Human,ABRF,G,ABRF-ILMN-M-AH'
p3552
(dp3553
g3
(dp3554
g5
I0
sg6
I58332
ssg7
(dp3555
g9
I1328
sg10
I55938
sg11
I1066
ssg12
(dp3556
g14
I7
sg15
I3
sg16
I227
sg17
I90
sg18
I741
sg19
I3553
sg20
I64
sg21
I37
sg22
I20
sg23
I1
sg24
I2226
sg25
I46950
sg26
I3
sg27
I4398
ssg28
(dp3557
g23
I58272
sg22
I20
sg15
I3
sg21
I37
sssS'Human,Encode,S,NHEM_M2'
p3558
(dp3559
g3
(dp3560
g5
I381
sg6
I24761
ssg7
(dp3561
g9
I1265
sg10
I23015
sg11
I862
ssg12
(dp3562
g14
I4
sg15
I1
sg16
I149
sg17
I58
sg18
I400
sg19
I3180
sg20
I30
sg21
I33
sg22
I10
sg23
I0
sg24
I1185
sg25
I17549
sg26
I3
sg27
I2533
ssg28
(dp3563
g23
I25098
sg22
I10
sg15
I1
sg21
I33
sssS'Human,CCLE,S,CCLE-LIHC'
p3564
(dp3565
g3
(dp3566
g5
I695
sg6
I62494
ssg7
(dp3567
g9
I1676
sg10
I58457
sg11
I3056
ssg12
(dp3568
g14
I11
sg15
I8
sg16
I566
sg17
I340
sg18
I1946
sg19
I10265
sg20
I129
sg21
I459
sg22
I206
sg23
I4
sg24
I3077
sg25
I38954
sg26
I8
sg27
I7176
ssg28
(dp3569
g23
I62516
sg22
I206
sg15
I8
sg21
I459
sssS'Human,CCLE,S,CCLE-SARC'
p3570
(dp3571
g3
(dp3572
g5
I767
sg6
I64502
ssg7
(dp3573
g9
I1673
sg10
I60483
sg11
I3113
ssg12
(dp3574
g14
I17
sg15
I7
sg16
I560
sg17
I390
sg18
I2059
sg19
I11174
sg20
I173
sg21
I391
sg22
I154
sg23
I1
sg24
I3265
sg25
I39648
sg26
I10
sg27
I7378
ssg28
(dp3575
g23
I64717
sg22
I154
sg15
I7
sg21
I391
sssS'Human,Roadmap,P,heart_right_atrium'
p3576
(dp3577
g3
(dp3578
g5
I609
sg6
I46541
ssg7
(dp3579
g9
I1523
sg10
I44531
sg11
I1096
ssg12
(dp3580
g14
I5
sg15
I4
sg16
I400
sg17
I144
sg18
I1174
sg19
I5551
sg20
I78
sg21
I62
sg22
I40
sg23
I0
sg24
I2372
sg25
I31983
sg26
I8
sg27
I5308
ssg28
(dp3581
g23
I47044
sg22
I40
sg15
I4
sg21
I62
sss.